Certificate:
    Data:
        Version: 3 (0x2)
        Serial Number: 197 (0xc5)
    Signature Algorithm: sha256WithRSAEncryption
        Issuer: C=BH, ST=Republika Srpska, L=Banja Luka, O=Elektrotehnicki fakultet, OU=Kriptografija, CN=rootCA/emailAddress=djordje.palavestra@student.etf.unibl.org
        Validity
            Not Before: May 31 11:06:53 2019 GMT
            Not After : May 30 11:06:53 2020 GMT
        Subject: C=BH, ST=Republika Srpska, O=Elektrotehnicki fakultet, OU=Kriptografija, CN=user1/emailAddress=user1@gmail.com
        Subject Public Key Info:
            Public Key Algorithm: rsaEncryption
                Public-Key: (2048 bit)
                Modulus:
                    00:9d:9e:94:1e:97:21:97:51:f5:00:b4:8d:5c:93:
                    ef:34:16:fd:12:b0:55:8a:aa:26:e4:07:75:f8:84:
                    21:2e:7f:2e:f6:ea:8c:02:48:fb:48:c7:c8:30:90:
                    c2:55:df:a2:b1:6b:f9:4e:41:68:88:95:be:3b:cc:
                    c7:eb:e8:20:b4:1b:6c:7c:4b:28:25:ef:1e:f2:56:
                    30:5c:8b:94:c7:eb:7f:a7:28:fa:14:49:4f:96:14:
                    d7:fe:46:e6:62:14:0c:12:90:42:cc:4d:0a:52:4b:
                    ae:c0:1a:be:de:bb:bf:9c:9e:3b:84:87:29:0a:ce:
                    71:39:34:71:d6:55:d3:d1:e9:df:56:67:b3:3a:04:
                    a3:34:24:74:9d:b6:0d:f8:e6:5e:94:8b:1b:8f:e4:
                    0b:72:e5:f8:fe:6f:d7:e5:08:78:d1:39:fe:37:41:
                    79:a3:fe:19:0f:f4:10:a1:ef:22:3f:92:69:86:74:
                    74:d7:48:27:30:8f:d1:a9:85:64:44:af:57:cf:da:
                    07:17:61:c2:ed:ea:aa:a6:12:a8:79:5a:aa:9c:31:
                    16:79:fe:05:00:4c:16:a4:f1:e7:45:75:81:92:aa:
                    dc:9e:55:82:e1:e0:51:51:c6:11:86:8d:73:8a:6b:
                    ef:a3:f7:c3:58:01:c2:ea:bd:39:c8:b8:8b:93:d4:
                    27:b3
                Exponent: 65537 (0x10001)
        X509v3 extensions:
            X509v3 Basic Constraints: 
                CA:FALSE
            X509v3 Key Usage: 
                Digital Signature, Non Repudiation, Key Encipherment
            Netscape Comment: 
                OpenSSL Generated Certificate
            X509v3 Subject Key Identifier: 
                F5:DC:AC:00:5D:7E:47:44:1D:48:F9:69:29:4A:5C:32:07:2C:86:2B
            X509v3 Authority Key Identifier: 
                keyid:C1:06:EE:2D:63:0A:80:21:A8:83:57:56:85:FF:79:DD:3A:9B:98:8A

    Signature Algorithm: sha256WithRSAEncryption
         c2:ab:1d:55:f5:23:ee:aa:ff:23:56:be:9f:20:55:26:e5:40:
         07:79:2c:c2:ab:d7:15:7c:c6:ef:e6:a5:d8:d9:51:f4:14:b5:
         a0:73:1c:86:d0:9e:35:c8:f8:63:80:cc:ff:92:fa:50:ef:cc:
         f0:3c:41:cf:52:f8:d7:95:d7:b3:2a:3c:5a:17:a1:ef:c2:07:
         8e:fb:8c:9f:60:2c:ad:32:5e:f2:6a:34:ae:91:bb:2c:87:28:
         59:dd:c4:c9:74:1d:80:dc:e2:be:56:7b:84:a9:1e:ab:4f:62:
         00:57:16:87:07:5f:34:bd:94:12:b7:c3:08:8a:71:c5:24:ab:
         4d:e5:92:e0:79:19:6c:c8:65:38:e5:e2:58:02:77:83:e8:8e:
         c1:8f:8e:15:f6:ba:09:c6:b9:dd:f6:a6:1c:72:b3:e3:99:30:
         d2:88:35:e0:3e:4a:45:9f:6e:d1:7c:1d:68:f9:b5:27:c4:45:
         8a:aa:3e:cd:c8:f2:c4:3c:db:9b:e6:b0:3d:d0:78:4c:5c:bc:
         5e:5d:be:e0:74:73:c0:cb:df:dd:ec:8f:2b:49:a9:99:06:dd:
         de:5c:e2:7b:22:f5:4e:f8:5d:0b:d6:56:43:e6:50:45:ab:6d:
         01:9a:3a:0a:98:00:e3:b5:45:82:81:bd:9c:d6:33:b2:ba:d2:
         3c:99:f6:1b
-----BEGIN CERTIFICATE-----
MIIEXTCCA0WgAwIBAgICAMUwDQYJKoZIhvcNAQELBQAwgcIxCzAJBgNVBAYTAkJI
MRkwFwYDVQQIDBBSZXB1Ymxpa2EgU3Jwc2thMRMwEQYDVQQHDApCYW5qYSBMdWth
MSEwHwYDVQQKDBhFbGVrdHJvdGVobmlja2kgZmFrdWx0ZXQxFjAUBgNVBAsMDUty
aXB0b2dyYWZpamExDzANBgNVBAMMBnJvb3RDQTE3MDUGCSqGSIb3DQEJARYoZGpv
cmRqZS5wYWxhdmVzdHJhQHN0dWRlbnQuZXRmLnVuaWJsLm9yZzAeFw0xOTA1MzEx
MTA2NTNaFw0yMDA1MzAxMTA2NTNaMIGTMQswCQYDVQQGEwJCSDEZMBcGA1UECAwQ
UmVwdWJsaWthIFNycHNrYTEhMB8GA1UECgwYRWxla3Ryb3RlaG5pY2tpIGZha3Vs
dGV0MRYwFAYDVQQLDA1LcmlwdG9ncmFmaWphMQ4wDAYDVQQDDAV1c2VyMTEeMBwG
CSqGSIb3DQEJARYPdXNlcjFAZ21haWwuY29tMIIBIjANBgkqhkiG9w0BAQEFAAOC
AQ8AMIIBCgKCAQEAnZ6UHpchl1H1ALSNXJPvNBb9ErBViqom5Ad1+IQhLn8u9uqM
Akj7SMfIMJDCVd+isWv5TkFoiJW+O8zH6+ggtBtsfEsoJe8e8lYwXIuUx+t/pyj6
FElPlhTX/kbmYhQMEpBCzE0KUkuuwBq+3ru/nJ47hIcpCs5xOTRx1lXT0enfVmez
OgSjNCR0nbYN+OZelIsbj+QLcuX4/m/X5Qh40Tn+N0F5o/4ZD/QQoe8iP5JphnR0
10gnMI/RqYVkRK9Xz9oHF2HC7eqqphKoeVqqnDEWef4FAEwWpPHnRXWBkqrcnlWC
4eBRUcYRho1zimvvo/fDWAHC6r05yLiLk9QnswIDAQABo4GJMIGGMAkGA1UdEwQC
MAAwCwYDVR0PBAQDAgXgMCwGCWCGSAGG+EIBDQQfFh1PcGVuU1NMIEdlbmVyYXRl
ZCBDZXJ0aWZpY2F0ZTAdBgNVHQ4EFgQU9dysAF1+R0QdSPlpKUpcMgcshiswHwYD
VR0jBBgwFoAUwQbuLWMKgCGog1dWhf953TqbmIowDQYJKoZIhvcNAQELBQADggEB
AMKrHVX1I+6q/yNWvp8gVSblQAd5LMKr1xV8xu/mpdjZUfQUtaBzHIbQnjXI+GOA
zP+S+lDvzPA8Qc9S+NeV17MqPFoXoe/CB477jJ9gLK0yXvJqNK6RuyyHKFndxMl0
HYDc4r5We4SpHqtPYgBXFocHXzS9lBK3wwiKccUkq03lkuB5GWzIZTjl4lgCd4Po
jsGPjhX2ugnGud32phxys+OZMNKINeA+SkWfbtF8HWj5tSfERYqqPs3I8sQ825vm
sD3QeExcvF5dvuB0c8DL393sjytJqZkG3d5c4nsi9U74XQvWVkPmUEWrbQGaOgqY
AOO1RYKBvZzWM7K60jyZ9hs=
-----END CERTIFICATE-----
