Certificate:
    Data:
        Version: 3 (0x2)
        Serial Number: 186 (0xba)
    Signature Algorithm: sha256WithRSAEncryption
        Issuer: C=BH, ST=Republika Srpska, L=Banja Luka, O=Elektrotehnicki fakultet, OU=Kriptografija, CN=rootCA/emailAddress=djordje.palavestra@student.etf.unibl.org
        Validity
            Not Before: May 30 15:40:18 2019 GMT
            Not After : May 29 15:40:18 2020 GMT
        Subject: C=BH, ST=Republika Srpska, O=Elektrotehnicki fakultet, OU=Kriptografija, CN=user1/emailAddress=user1@student.com
        Subject Public Key Info:
            Public Key Algorithm: rsaEncryption
                Public-Key: (2048 bit)
                Modulus:
                    00:bf:0f:62:4b:2a:be:9e:e4:b1:df:6a:97:84:d6:
                    21:a9:7e:2e:32:27:5a:5a:da:f3:8d:9b:76:f2:c8:
                    4d:ac:cc:f4:49:ca:6c:15:3b:e8:d1:58:f2:1c:0b:
                    f0:ac:94:30:cb:6f:ec:f7:1c:e1:65:ed:0c:13:d7:
                    09:c8:86:e9:38:f2:13:c5:c5:0d:25:9f:bf:3c:ef:
                    59:87:13:b1:7f:a8:7e:1f:9e:aa:4a:c6:7a:d6:3a:
                    0c:52:9f:37:5f:dd:b9:65:17:62:26:82:d7:0c:c6:
                    7f:59:56:94:1d:e5:e5:ec:3b:ff:43:98:8f:23:f5:
                    b4:03:07:94:9e:50:8e:03:7c:fc:72:b1:f2:fe:80:
                    50:cc:f9:4f:08:57:88:bd:a8:f6:09:0f:72:5c:35:
                    fc:7b:92:35:96:6e:10:a2:c0:f1:a1:ce:f5:8e:dd:
                    41:6c:5a:2e:07:e0:91:14:a0:39:6d:d1:77:b9:27:
                    a6:e1:04:3f:3f:68:b3:f8:0d:36:f5:06:3f:0d:7b:
                    ea:a1:d2:93:51:d5:92:23:d8:ea:28:27:04:0f:15:
                    d9:c2:47:e8:0e:41:44:61:8a:b0:b5:80:a0:e6:a3:
                    37:ee:ee:b5:61:9d:f4:2a:03:bd:4b:a5:8d:54:b6:
                    8b:7e:dc:27:c9:64:39:5a:ca:3d:ae:fa:0a:66:c3:
                    b0:8d
                Exponent: 65537 (0x10001)
        X509v3 extensions:
            X509v3 Basic Constraints: 
                CA:FALSE
            Netscape Comment: 
                OpenSSL Generated Certificate
            X509v3 Subject Key Identifier: 
                06:0F:8B:11:B7:5B:B1:AB:E9:60:A4:1D:FA:38:4C:3F:CC:F8:8F:43
            X509v3 Authority Key Identifier: 
                keyid:7D:F1:81:4E:02:DF:BC:9B:70:CF:65:43:66:C9:6C:7C:14:DF:BC:27

    Signature Algorithm: sha256WithRSAEncryption
         2f:aa:ed:05:b7:d7:24:df:50:c7:e1:1c:0b:f2:54:f3:18:8b:
         71:10:1c:d9:2d:6c:c2:1e:7a:2a:94:f7:3d:17:dd:a6:59:90:
         0b:83:0d:2e:40:2e:68:0a:36:97:a5:ef:cc:b4:21:b9:cb:aa:
         58:59:35:9f:58:4c:a8:2e:f8:f2:6b:ed:7f:18:f6:44:14:06:
         40:bc:a7:30:7d:22:62:07:7b:3a:28:dc:84:f9:2f:4f:4b:d7:
         a4:75:2d:a4:aa:17:d0:58:a8:f8:01:97:8b:50:6d:00:3c:90:
         46:69:16:d3:27:64:5c:33:7b:21:f1:46:f1:cf:a6:ff:72:2d:
         e3:65:e5:a4:36:ac:d3:72:9c:dd:02:17:4e:d2:80:47:43:ad:
         61:d9:c6:44:b3:33:07:3a:48:48:72:5d:cf:de:46:0e:95:0d:
         f4:cc:be:46:c9:09:c8:88:b8:ec:b6:dc:0d:45:e2:d3:05:a0:
         f6:69:fd:f5:a2:ac:1f:a4:0b:44:2a:1e:53:17:44:3c:4b:28:
         9a:6c:06:ea:90:0f:72:bf:d5:c1:f4:75:48:c7:15:29:8d:01:
         25:0d:ac:1c:28:b7:b2:8c:e6:30:d8:bd:07:f0:9d:7d:35:9f:
         54:c0:3a:ad:3f:c0:e9:d2:f1:56:b7:99:8b:9f:83:48:c6:88:
         ff:ef:84:d5
-----BEGIN CERTIFICATE-----
MIIEUDCCAzigAwIBAgICALowDQYJKoZIhvcNAQELBQAwgcIxCzAJBgNVBAYTAkJI
MRkwFwYDVQQIDBBSZXB1Ymxpa2EgU3Jwc2thMRMwEQYDVQQHDApCYW5qYSBMdWth
MSEwHwYDVQQKDBhFbGVrdHJvdGVobmlja2kgZmFrdWx0ZXQxFjAUBgNVBAsMDUty
aXB0b2dyYWZpamExDzANBgNVBAMMBnJvb3RDQTE3MDUGCSqGSIb3DQEJARYoZGpv
cmRqZS5wYWxhdmVzdHJhQHN0dWRlbnQuZXRmLnVuaWJsLm9yZzAeFw0xOTA1MzAx
NTQwMThaFw0yMDA1MjkxNTQwMThaMIGVMQswCQYDVQQGEwJCSDEZMBcGA1UECAwQ
UmVwdWJsaWthIFNycHNrYTEhMB8GA1UECgwYRWxla3Ryb3RlaG5pY2tpIGZha3Vs
dGV0MRYwFAYDVQQLDA1LcmlwdG9ncmFmaWphMQ4wDAYDVQQDDAV1c2VyMTEgMB4G
CSqGSIb3DQEJARYRdXNlcjFAc3R1ZGVudC5jb20wggEiMA0GCSqGSIb3DQEBAQUA
A4IBDwAwggEKAoIBAQC/D2JLKr6e5LHfapeE1iGpfi4yJ1pa2vONm3byyE2szPRJ
ymwVO+jRWPIcC/CslDDLb+z3HOFl7QwT1wnIhuk48hPFxQ0ln78871mHE7F/qH4f
nqpKxnrWOgxSnzdf3bllF2ImgtcMxn9ZVpQd5eXsO/9DmI8j9bQDB5SeUI4DfPxy
sfL+gFDM+U8IV4i9qPYJD3JcNfx7kjWWbhCiwPGhzvWO3UFsWi4H4JEUoDlt0Xe5
J6bhBD8/aLP4DTb1Bj8Ne+qh0pNR1ZIj2OooJwQPFdnCR+gOQURhirC1gKDmozfu
7rVhnfQqA71LpY1Utot+3CfJZDlayj2u+gpmw7CNAgMBAAGjezB5MAkGA1UdEwQC
MAAwLAYJYIZIAYb4QgENBB8WHU9wZW5TU0wgR2VuZXJhdGVkIENlcnRpZmljYXRl
MB0GA1UdDgQWBBQGD4sRt1uxq+lgpB36OEw/zPiPQzAfBgNVHSMEGDAWgBR98YFO
At+8m3DPZUNmyWx8FN+8JzANBgkqhkiG9w0BAQsFAAOCAQEAL6rtBbfXJN9Qx+Ec
C/JU8xiLcRAc2S1swh56KpT3PRfdplmQC4MNLkAuaAo2l6XvzLQhucuqWFk1n1hM
qC748mvtfxj2RBQGQLynMH0iYgd7OijchPkvT0vXpHUtpKoX0Fio+AGXi1BtADyQ
RmkW0ydkXDN7IfFG8c+m/3It42XlpDas03Kc3QIXTtKAR0OtYdnGRLMzBzpISHJd
z95GDpUN9My+RskJyIi47LbcDUXi0wWg9mn99aKsH6QLRCoeUxdEPEsommwG6pAP
cr/VwfR1SMcVKY0BJQ2sHCi3sozmMNi9B/CdfTWfVMA6rT/A6dLxVreZi5+DSMaI
/++E1Q==
-----END CERTIFICATE-----
