Certificate:
    Data:
        Version: 3 (0x2)
        Serial Number: 187 (0xbb)
    Signature Algorithm: sha256WithRSAEncryption
        Issuer: C=BH, ST=Republika Srpska, L=Banja Luka, O=Elektrotehnicki fakultet, OU=Kriptografija, CN=rootCA/emailAddress=djordje.palavestra@student.etf.unibl.org
        Validity
            Not Before: May 30 15:46:18 2019 GMT
            Not After : May 29 15:46:18 2020 GMT
        Subject: C=BH, ST=Republika Srpska, O=Elektrotehnicki fakultet, OU=Kriptografija, CN=user2/emailAddress=user2@student.com
        Subject Public Key Info:
            Public Key Algorithm: rsaEncryption
                Public-Key: (2048 bit)
                Modulus:
                    00:bf:0f:62:4b:2a:be:9e:e4:b1:df:6a:97:84:d6:
                    21:a9:7e:2e:32:27:5a:5a:da:f3:8d:9b:76:f2:c8:
                    4d:ac:cc:f4:49:ca:6c:15:3b:e8:d1:58:f2:1c:0b:
                    f0:ac:94:30:cb:6f:ec:f7:1c:e1:65:ed:0c:13:d7:
                    09:c8:86:e9:38:f2:13:c5:c5:0d:25:9f:bf:3c:ef:
                    59:87:13:b1:7f:a8:7e:1f:9e:aa:4a:c6:7a:d6:3a:
                    0c:52:9f:37:5f:dd:b9:65:17:62:26:82:d7:0c:c6:
                    7f:59:56:94:1d:e5:e5:ec:3b:ff:43:98:8f:23:f5:
                    b4:03:07:94:9e:50:8e:03:7c:fc:72:b1:f2:fe:80:
                    50:cc:f9:4f:08:57:88:bd:a8:f6:09:0f:72:5c:35:
                    fc:7b:92:35:96:6e:10:a2:c0:f1:a1:ce:f5:8e:dd:
                    41:6c:5a:2e:07:e0:91:14:a0:39:6d:d1:77:b9:27:
                    a6:e1:04:3f:3f:68:b3:f8:0d:36:f5:06:3f:0d:7b:
                    ea:a1:d2:93:51:d5:92:23:d8:ea:28:27:04:0f:15:
                    d9:c2:47:e8:0e:41:44:61:8a:b0:b5:80:a0:e6:a3:
                    37:ee:ee:b5:61:9d:f4:2a:03:bd:4b:a5:8d:54:b6:
                    8b:7e:dc:27:c9:64:39:5a:ca:3d:ae:fa:0a:66:c3:
                    b0:8d
                Exponent: 65537 (0x10001)
        X509v3 extensions:
            X509v3 Basic Constraints: 
                CA:FALSE
            Netscape Comment: 
                OpenSSL Generated Certificate
            X509v3 Subject Key Identifier: 
                06:0F:8B:11:B7:5B:B1:AB:E9:60:A4:1D:FA:38:4C:3F:CC:F8:8F:43
            X509v3 Authority Key Identifier: 
                keyid:7D:F1:81:4E:02:DF:BC:9B:70:CF:65:43:66:C9:6C:7C:14:DF:BC:27

    Signature Algorithm: sha256WithRSAEncryption
         50:2a:7b:64:e4:44:24:ef:0c:be:cc:bd:2c:49:28:29:de:bd:
         bd:32:b2:5d:24:3d:be:2a:8b:eb:48:76:54:43:c4:ec:ed:70:
         7c:f9:fd:11:ed:9a:9f:af:54:35:f1:2e:4e:ac:12:b8:39:29:
         ef:a5:b2:6a:a0:e3:b7:c6:a6:d7:4d:83:5c:39:df:0c:4d:68:
         a4:1b:e5:e0:41:cb:4e:ae:2e:43:5e:08:f7:bb:dd:de:a7:cb:
         ad:eb:1e:13:10:4f:ba:2f:dc:1e:f3:5e:4d:14:58:46:65:f2:
         ad:49:09:ae:63:07:ca:12:d6:28:1d:8e:8c:46:54:21:12:8e:
         5b:e4:37:ad:06:9d:ba:2a:c7:4f:3e:6a:40:ef:ba:31:1c:65:
         b8:66:39:f9:56:f6:52:da:57:ba:ff:41:d4:4b:e2:5a:64:ba:
         dd:0d:e5:4a:42:cd:d4:ef:dd:81:9b:41:e5:85:17:f3:1c:92:
         89:da:5e:57:3d:2d:3d:60:90:64:8f:0c:ee:c6:04:49:b2:b3:
         1b:8b:82:d6:7d:b4:55:28:95:8c:39:cf:41:27:1e:49:f0:6c:
         21:be:86:c1:1f:40:f8:d9:da:84:bb:32:7c:0e:f6:d4:60:53:
         0f:88:de:7a:26:f0:e4:b1:e0:d0:5e:df:b1:7b:32:ee:e7:03:
         8d:47:ec:67
-----BEGIN CERTIFICATE-----
MIIEUDCCAzigAwIBAgICALswDQYJKoZIhvcNAQELBQAwgcIxCzAJBgNVBAYTAkJI
MRkwFwYDVQQIDBBSZXB1Ymxpa2EgU3Jwc2thMRMwEQYDVQQHDApCYW5qYSBMdWth
MSEwHwYDVQQKDBhFbGVrdHJvdGVobmlja2kgZmFrdWx0ZXQxFjAUBgNVBAsMDUty
aXB0b2dyYWZpamExDzANBgNVBAMMBnJvb3RDQTE3MDUGCSqGSIb3DQEJARYoZGpv
cmRqZS5wYWxhdmVzdHJhQHN0dWRlbnQuZXRmLnVuaWJsLm9yZzAeFw0xOTA1MzAx
NTQ2MThaFw0yMDA1MjkxNTQ2MThaMIGVMQswCQYDVQQGEwJCSDEZMBcGA1UECAwQ
UmVwdWJsaWthIFNycHNrYTEhMB8GA1UECgwYRWxla3Ryb3RlaG5pY2tpIGZha3Vs
dGV0MRYwFAYDVQQLDA1LcmlwdG9ncmFmaWphMQ4wDAYDVQQDDAV1c2VyMjEgMB4G
CSqGSIb3DQEJARYRdXNlcjJAc3R1ZGVudC5jb20wggEiMA0GCSqGSIb3DQEBAQUA
A4IBDwAwggEKAoIBAQC/D2JLKr6e5LHfapeE1iGpfi4yJ1pa2vONm3byyE2szPRJ
ymwVO+jRWPIcC/CslDDLb+z3HOFl7QwT1wnIhuk48hPFxQ0ln78871mHE7F/qH4f
nqpKxnrWOgxSnzdf3bllF2ImgtcMxn9ZVpQd5eXsO/9DmI8j9bQDB5SeUI4DfPxy
sfL+gFDM+U8IV4i9qPYJD3JcNfx7kjWWbhCiwPGhzvWO3UFsWi4H4JEUoDlt0Xe5
J6bhBD8/aLP4DTb1Bj8Ne+qh0pNR1ZIj2OooJwQPFdnCR+gOQURhirC1gKDmozfu
7rVhnfQqA71LpY1Utot+3CfJZDlayj2u+gpmw7CNAgMBAAGjezB5MAkGA1UdEwQC
MAAwLAYJYIZIAYb4QgENBB8WHU9wZW5TU0wgR2VuZXJhdGVkIENlcnRpZmljYXRl
MB0GA1UdDgQWBBQGD4sRt1uxq+lgpB36OEw/zPiPQzAfBgNVHSMEGDAWgBR98YFO
At+8m3DPZUNmyWx8FN+8JzANBgkqhkiG9w0BAQsFAAOCAQEAUCp7ZOREJO8Mvsy9
LEkoKd69vTKyXSQ9viqL60h2VEPE7O1wfPn9Ee2an69UNfEuTqwSuDkp76WyaqDj
t8am102DXDnfDE1opBvl4EHLTq4uQ14I97vd3qfLreseExBPui/cHvNeTRRYRmXy
rUkJrmMHyhLWKB2OjEZUIRKOW+Q3rQaduirHTz5qQO+6MRxluGY5+Vb2UtpXuv9B
1EviWmS63Q3lSkLN1O/dgZtB5YUX8xySidpeVz0tPWCQZI8M7sYESbKzG4uC1n20
VSiVjDnPQSceSfBsIb6GwR9A+NnahLsyfA721GBTD4jeeibw5LHg0F7fsXsy7ucD
jUfsZw==
-----END CERTIFICATE-----
