Certificate:
    Data:
        Version: 3 (0x2)
        Serial Number: 188 (0xbc)
    Signature Algorithm: sha256WithRSAEncryption
        Issuer: C=BH, ST=Republika Srpska, L=Banja Luka, O=Elektrotehnicki fakultet, OU=Kriptografija, CN=rootCA/emailAddress=djordje.palavestra@student.etf.unibl.org
        Validity
            Not Before: May 30 15:46:33 2019 GMT
            Not After : May 29 15:46:33 2020 GMT
        Subject: C=BH, ST=Republika Srpska, O=Elektrotehnicki fakultet, OU=Kriptografija, CN=user3/emailAddress=user3@student.com
        Subject Public Key Info:
            Public Key Algorithm: rsaEncryption
                Public-Key: (2048 bit)
                Modulus:
                    00:bf:0f:62:4b:2a:be:9e:e4:b1:df:6a:97:84:d6:
                    21:a9:7e:2e:32:27:5a:5a:da:f3:8d:9b:76:f2:c8:
                    4d:ac:cc:f4:49:ca:6c:15:3b:e8:d1:58:f2:1c:0b:
                    f0:ac:94:30:cb:6f:ec:f7:1c:e1:65:ed:0c:13:d7:
                    09:c8:86:e9:38:f2:13:c5:c5:0d:25:9f:bf:3c:ef:
                    59:87:13:b1:7f:a8:7e:1f:9e:aa:4a:c6:7a:d6:3a:
                    0c:52:9f:37:5f:dd:b9:65:17:62:26:82:d7:0c:c6:
                    7f:59:56:94:1d:e5:e5:ec:3b:ff:43:98:8f:23:f5:
                    b4:03:07:94:9e:50:8e:03:7c:fc:72:b1:f2:fe:80:
                    50:cc:f9:4f:08:57:88:bd:a8:f6:09:0f:72:5c:35:
                    fc:7b:92:35:96:6e:10:a2:c0:f1:a1:ce:f5:8e:dd:
                    41:6c:5a:2e:07:e0:91:14:a0:39:6d:d1:77:b9:27:
                    a6:e1:04:3f:3f:68:b3:f8:0d:36:f5:06:3f:0d:7b:
                    ea:a1:d2:93:51:d5:92:23:d8:ea:28:27:04:0f:15:
                    d9:c2:47:e8:0e:41:44:61:8a:b0:b5:80:a0:e6:a3:
                    37:ee:ee:b5:61:9d:f4:2a:03:bd:4b:a5:8d:54:b6:
                    8b:7e:dc:27:c9:64:39:5a:ca:3d:ae:fa:0a:66:c3:
                    b0:8d
                Exponent: 65537 (0x10001)
        X509v3 extensions:
            X509v3 Basic Constraints: 
                CA:FALSE
            Netscape Comment: 
                OpenSSL Generated Certificate
            X509v3 Subject Key Identifier: 
                06:0F:8B:11:B7:5B:B1:AB:E9:60:A4:1D:FA:38:4C:3F:CC:F8:8F:43
            X509v3 Authority Key Identifier: 
                keyid:7D:F1:81:4E:02:DF:BC:9B:70:CF:65:43:66:C9:6C:7C:14:DF:BC:27

    Signature Algorithm: sha256WithRSAEncryption
         6e:6f:42:0e:bb:82:8a:ec:04:68:3b:c9:16:a9:6b:69:4c:ac:
         29:99:4b:e0:40:90:aa:3d:fc:77:37:ad:d0:da:8d:1f:e6:11:
         01:80:59:6b:3f:7d:45:26:a5:39:e5:e8:f8:bd:e4:95:44:91:
         d3:a6:d8:78:9c:37:29:dd:be:f9:2f:32:78:a5:d7:76:b3:83:
         b2:80:4e:fc:5c:a3:6d:46:4b:e9:c9:3e:f7:59:51:e2:ca:bc:
         5b:1b:cb:17:22:14:ca:c1:d4:46:df:c9:39:48:42:07:28:45:
         fe:25:b5:4f:73:3e:5c:a2:c6:21:69:ab:af:03:d9:23:9e:2b:
         38:28:6f:e5:4a:e6:51:5a:8c:32:77:1a:43:3d:5b:83:13:e3:
         8f:5c:72:6e:c5:f7:90:b9:a1:26:ec:58:e7:ff:4a:8f:05:d9:
         9d:ea:5f:ec:3e:5c:83:59:0e:aa:c9:c8:a0:5f:79:80:5b:68:
         dd:fc:06:30:e5:5e:4f:91:a2:85:08:ba:78:57:9f:9b:33:c3:
         38:38:5c:13:66:5f:fe:1f:74:ff:4b:85:29:44:b1:8a:88:eb:
         28:8d:80:53:0f:39:f4:2d:9e:c2:10:1b:3c:64:07:7d:49:80:
         74:bd:a7:17:f7:ed:2a:ed:e9:a5:21:3d:b7:94:d0:f3:2d:bb:
         11:d6:eb:dd
-----BEGIN CERTIFICATE-----
MIIEUDCCAzigAwIBAgICALwwDQYJKoZIhvcNAQELBQAwgcIxCzAJBgNVBAYTAkJI
MRkwFwYDVQQIDBBSZXB1Ymxpa2EgU3Jwc2thMRMwEQYDVQQHDApCYW5qYSBMdWth
MSEwHwYDVQQKDBhFbGVrdHJvdGVobmlja2kgZmFrdWx0ZXQxFjAUBgNVBAsMDUty
aXB0b2dyYWZpamExDzANBgNVBAMMBnJvb3RDQTE3MDUGCSqGSIb3DQEJARYoZGpv
cmRqZS5wYWxhdmVzdHJhQHN0dWRlbnQuZXRmLnVuaWJsLm9yZzAeFw0xOTA1MzAx
NTQ2MzNaFw0yMDA1MjkxNTQ2MzNaMIGVMQswCQYDVQQGEwJCSDEZMBcGA1UECAwQ
UmVwdWJsaWthIFNycHNrYTEhMB8GA1UECgwYRWxla3Ryb3RlaG5pY2tpIGZha3Vs
dGV0MRYwFAYDVQQLDA1LcmlwdG9ncmFmaWphMQ4wDAYDVQQDDAV1c2VyMzEgMB4G
CSqGSIb3DQEJARYRdXNlcjNAc3R1ZGVudC5jb20wggEiMA0GCSqGSIb3DQEBAQUA
A4IBDwAwggEKAoIBAQC/D2JLKr6e5LHfapeE1iGpfi4yJ1pa2vONm3byyE2szPRJ
ymwVO+jRWPIcC/CslDDLb+z3HOFl7QwT1wnIhuk48hPFxQ0ln78871mHE7F/qH4f
nqpKxnrWOgxSnzdf3bllF2ImgtcMxn9ZVpQd5eXsO/9DmI8j9bQDB5SeUI4DfPxy
sfL+gFDM+U8IV4i9qPYJD3JcNfx7kjWWbhCiwPGhzvWO3UFsWi4H4JEUoDlt0Xe5
J6bhBD8/aLP4DTb1Bj8Ne+qh0pNR1ZIj2OooJwQPFdnCR+gOQURhirC1gKDmozfu
7rVhnfQqA71LpY1Utot+3CfJZDlayj2u+gpmw7CNAgMBAAGjezB5MAkGA1UdEwQC
MAAwLAYJYIZIAYb4QgENBB8WHU9wZW5TU0wgR2VuZXJhdGVkIENlcnRpZmljYXRl
MB0GA1UdDgQWBBQGD4sRt1uxq+lgpB36OEw/zPiPQzAfBgNVHSMEGDAWgBR98YFO
At+8m3DPZUNmyWx8FN+8JzANBgkqhkiG9w0BAQsFAAOCAQEAbm9CDruCiuwEaDvJ
FqlraUysKZlL4ECQqj38dzet0NqNH+YRAYBZaz99RSalOeXo+L3klUSR06bYeJw3
Kd2++S8yeKXXdrODsoBO/FyjbUZL6ck+91lR4sq8WxvLFyIUysHURt/JOUhCByhF
/iW1T3M+XKLGIWmrrwPZI54rOChv5UrmUVqMMncaQz1bgxPjj1xybsX3kLmhJuxY
5/9KjwXZnepf7D5cg1kOqsnIoF95gFto3fwGMOVeT5GihQi6eFefmzPDODhcE2Zf
/h90/0uFKUSxiojrKI2AUw859C2ewhAbPGQHfUmAdL2nF/ftKu3ppSE9t5TQ8y27
Edbr3Q==
-----END CERTIFICATE-----
