Certificate:
    Data:
        Version: 3 (0x2)
        Serial Number: 189 (0xbd)
    Signature Algorithm: sha256WithRSAEncryption
        Issuer: C=BH, ST=Republika Srpska, L=Banja Luka, O=Elektrotehnicki fakultet, OU=Kriptografija, CN=rootCA/emailAddress=djordje.palavestra@student.etf.unibl.org
        Validity
            Not Before: May 30 15:53:19 2019 GMT
            Not After : May 29 15:53:19 2020 GMT
        Subject: C=BH, ST=Republika Srpska, O=Elektrotehnicki fakultet, OU=Kriptografija, CN=user3/emailAddress=user3@student.com
        Subject Public Key Info:
            Public Key Algorithm: rsaEncryption
                Public-Key: (2048 bit)
                Modulus:
                    00:bf:0f:62:4b:2a:be:9e:e4:b1:df:6a:97:84:d6:
                    21:a9:7e:2e:32:27:5a:5a:da:f3:8d:9b:76:f2:c8:
                    4d:ac:cc:f4:49:ca:6c:15:3b:e8:d1:58:f2:1c:0b:
                    f0:ac:94:30:cb:6f:ec:f7:1c:e1:65:ed:0c:13:d7:
                    09:c8:86:e9:38:f2:13:c5:c5:0d:25:9f:bf:3c:ef:
                    59:87:13:b1:7f:a8:7e:1f:9e:aa:4a:c6:7a:d6:3a:
                    0c:52:9f:37:5f:dd:b9:65:17:62:26:82:d7:0c:c6:
                    7f:59:56:94:1d:e5:e5:ec:3b:ff:43:98:8f:23:f5:
                    b4:03:07:94:9e:50:8e:03:7c:fc:72:b1:f2:fe:80:
                    50:cc:f9:4f:08:57:88:bd:a8:f6:09:0f:72:5c:35:
                    fc:7b:92:35:96:6e:10:a2:c0:f1:a1:ce:f5:8e:dd:
                    41:6c:5a:2e:07:e0:91:14:a0:39:6d:d1:77:b9:27:
                    a6:e1:04:3f:3f:68:b3:f8:0d:36:f5:06:3f:0d:7b:
                    ea:a1:d2:93:51:d5:92:23:d8:ea:28:27:04:0f:15:
                    d9:c2:47:e8:0e:41:44:61:8a:b0:b5:80:a0:e6:a3:
                    37:ee:ee:b5:61:9d:f4:2a:03:bd:4b:a5:8d:54:b6:
                    8b:7e:dc:27:c9:64:39:5a:ca:3d:ae:fa:0a:66:c3:
                    b0:8d
                Exponent: 65537 (0x10001)
        X509v3 extensions:
            X509v3 Basic Constraints: 
                CA:FALSE
            Netscape Comment: 
                OpenSSL Generated Certificate
            X509v3 Subject Key Identifier: 
                06:0F:8B:11:B7:5B:B1:AB:E9:60:A4:1D:FA:38:4C:3F:CC:F8:8F:43
            X509v3 Authority Key Identifier: 
                keyid:7D:F1:81:4E:02:DF:BC:9B:70:CF:65:43:66:C9:6C:7C:14:DF:BC:27

    Signature Algorithm: sha256WithRSAEncryption
         99:fa:15:88:21:be:2c:6b:29:6e:f5:27:b1:7d:cf:1a:18:af:
         6f:28:90:47:b2:ec:75:78:8e:cb:f2:cd:6e:48:61:09:41:d1:
         ae:ff:37:57:c4:de:f4:ae:d8:86:5a:56:4d:c5:8c:b8:89:97:
         49:71:6e:e9:a0:2f:e9:6b:58:10:9c:02:fa:6d:a3:e2:92:98:
         c3:c4:67:7a:c5:80:a2:7b:98:c1:d6:9b:80:28:66:9a:27:18:
         80:61:ed:41:2d:2b:dc:3b:2d:ba:76:51:12:c8:8c:ce:08:a8:
         27:34:a9:94:44:00:7f:c8:70:2a:f4:c8:71:7a:5e:68:f2:df:
         18:ee:b7:92:27:e8:86:62:f9:48:33:30:f9:15:cf:34:b1:25:
         1c:c5:3a:d7:d1:09:3d:51:1e:71:ca:3b:96:e5:9d:c7:60:c3:
         04:08:7a:dc:12:d8:16:aa:d9:c5:88:20:01:8e:6c:5f:f9:7e:
         3d:87:a6:3d:0a:21:2c:2d:6e:6d:3b:68:3b:5b:d5:ff:e9:2e:
         1a:82:b7:2f:a1:55:ee:ac:35:e5:fa:52:66:83:af:0c:19:b4:
         1a:03:06:35:9b:a2:8f:6c:c9:95:b2:ac:b9:db:0f:f8:40:8c:
         e7:cd:93:a4:aa:dd:93:3e:2b:49:47:2e:09:c1:ec:fc:ad:ee:
         37:f0:a9:38
-----BEGIN CERTIFICATE-----
MIIEUDCCAzigAwIBAgICAL0wDQYJKoZIhvcNAQELBQAwgcIxCzAJBgNVBAYTAkJI
MRkwFwYDVQQIDBBSZXB1Ymxpa2EgU3Jwc2thMRMwEQYDVQQHDApCYW5qYSBMdWth
MSEwHwYDVQQKDBhFbGVrdHJvdGVobmlja2kgZmFrdWx0ZXQxFjAUBgNVBAsMDUty
aXB0b2dyYWZpamExDzANBgNVBAMMBnJvb3RDQTE3MDUGCSqGSIb3DQEJARYoZGpv
cmRqZS5wYWxhdmVzdHJhQHN0dWRlbnQuZXRmLnVuaWJsLm9yZzAeFw0xOTA1MzAx
NTUzMTlaFw0yMDA1MjkxNTUzMTlaMIGVMQswCQYDVQQGEwJCSDEZMBcGA1UECAwQ
UmVwdWJsaWthIFNycHNrYTEhMB8GA1UECgwYRWxla3Ryb3RlaG5pY2tpIGZha3Vs
dGV0MRYwFAYDVQQLDA1LcmlwdG9ncmFmaWphMQ4wDAYDVQQDDAV1c2VyMzEgMB4G
CSqGSIb3DQEJARYRdXNlcjNAc3R1ZGVudC5jb20wggEiMA0GCSqGSIb3DQEBAQUA
A4IBDwAwggEKAoIBAQC/D2JLKr6e5LHfapeE1iGpfi4yJ1pa2vONm3byyE2szPRJ
ymwVO+jRWPIcC/CslDDLb+z3HOFl7QwT1wnIhuk48hPFxQ0ln78871mHE7F/qH4f
nqpKxnrWOgxSnzdf3bllF2ImgtcMxn9ZVpQd5eXsO/9DmI8j9bQDB5SeUI4DfPxy
sfL+gFDM+U8IV4i9qPYJD3JcNfx7kjWWbhCiwPGhzvWO3UFsWi4H4JEUoDlt0Xe5
J6bhBD8/aLP4DTb1Bj8Ne+qh0pNR1ZIj2OooJwQPFdnCR+gOQURhirC1gKDmozfu
7rVhnfQqA71LpY1Utot+3CfJZDlayj2u+gpmw7CNAgMBAAGjezB5MAkGA1UdEwQC
MAAwLAYJYIZIAYb4QgENBB8WHU9wZW5TU0wgR2VuZXJhdGVkIENlcnRpZmljYXRl
MB0GA1UdDgQWBBQGD4sRt1uxq+lgpB36OEw/zPiPQzAfBgNVHSMEGDAWgBR98YFO
At+8m3DPZUNmyWx8FN+8JzANBgkqhkiG9w0BAQsFAAOCAQEAmfoViCG+LGspbvUn
sX3PGhivbyiQR7LsdXiOy/LNbkhhCUHRrv83V8Te9K7YhlpWTcWMuImXSXFu6aAv
6WtYEJwC+m2j4pKYw8RnesWAonuYwdabgChmmicYgGHtQS0r3DstunZREsiMzgio
JzSplEQAf8hwKvTIcXpeaPLfGO63kifohmL5SDMw+RXPNLElHMU619EJPVEecco7
luWdx2DDBAh63BLYFqrZxYggAY5sX/l+PYemPQohLC1ubTtoO1vV/+kuGoK3L6FV
7qw15fpSZoOvDBm0GgMGNZuij2zJlbKsudsP+ECM582TpKrdkz4rSUcuCcHs/K3u
N/CpOA==
-----END CERTIFICATE-----
