Certificate:
    Data:
        Version: 3 (0x2)
        Serial Number: 190 (0xbe)
    Signature Algorithm: sha256WithRSAEncryption
        Issuer: C=BH, ST=Republika Srpska, L=Banja Luka, O=Elektrotehnicki fakultet, OU=Kriptografija, CN=rootCA/emailAddress=djordje.palavestra@student.etf.unibl.org
        Validity
            Not Before: May 30 15:55:12 2019 GMT
            Not After : May 29 15:55:12 2020 GMT
        Subject: C=BH, ST=Republika Srpska, O=Elektrotehnicki fakultet, OU=Kriptografija, CN=user2/emailAddress=user2@student.com
        Subject Public Key Info:
            Public Key Algorithm: rsaEncryption
                Public-Key: (2048 bit)
                Modulus:
                    00:bf:0f:62:4b:2a:be:9e:e4:b1:df:6a:97:84:d6:
                    21:a9:7e:2e:32:27:5a:5a:da:f3:8d:9b:76:f2:c8:
                    4d:ac:cc:f4:49:ca:6c:15:3b:e8:d1:58:f2:1c:0b:
                    f0:ac:94:30:cb:6f:ec:f7:1c:e1:65:ed:0c:13:d7:
                    09:c8:86:e9:38:f2:13:c5:c5:0d:25:9f:bf:3c:ef:
                    59:87:13:b1:7f:a8:7e:1f:9e:aa:4a:c6:7a:d6:3a:
                    0c:52:9f:37:5f:dd:b9:65:17:62:26:82:d7:0c:c6:
                    7f:59:56:94:1d:e5:e5:ec:3b:ff:43:98:8f:23:f5:
                    b4:03:07:94:9e:50:8e:03:7c:fc:72:b1:f2:fe:80:
                    50:cc:f9:4f:08:57:88:bd:a8:f6:09:0f:72:5c:35:
                    fc:7b:92:35:96:6e:10:a2:c0:f1:a1:ce:f5:8e:dd:
                    41:6c:5a:2e:07:e0:91:14:a0:39:6d:d1:77:b9:27:
                    a6:e1:04:3f:3f:68:b3:f8:0d:36:f5:06:3f:0d:7b:
                    ea:a1:d2:93:51:d5:92:23:d8:ea:28:27:04:0f:15:
                    d9:c2:47:e8:0e:41:44:61:8a:b0:b5:80:a0:e6:a3:
                    37:ee:ee:b5:61:9d:f4:2a:03:bd:4b:a5:8d:54:b6:
                    8b:7e:dc:27:c9:64:39:5a:ca:3d:ae:fa:0a:66:c3:
                    b0:8d
                Exponent: 65537 (0x10001)
        X509v3 extensions:
            X509v3 Basic Constraints: 
                CA:FALSE
            Netscape Comment: 
                OpenSSL Generated Certificate
            X509v3 Subject Key Identifier: 
                06:0F:8B:11:B7:5B:B1:AB:E9:60:A4:1D:FA:38:4C:3F:CC:F8:8F:43
            X509v3 Authority Key Identifier: 
                keyid:7D:F1:81:4E:02:DF:BC:9B:70:CF:65:43:66:C9:6C:7C:14:DF:BC:27

    Signature Algorithm: sha256WithRSAEncryption
         62:f7:2f:fa:45:08:83:87:7b:3a:b5:21:5f:d7:bc:60:e6:f2:
         6d:4f:9f:0c:99:1f:10:7d:ef:49:ed:d8:0f:0d:ae:3e:e4:4f:
         d1:d4:8e:9e:5f:52:f9:18:06:05:a1:2a:0d:d6:e4:5e:2d:70:
         23:4a:a3:57:5b:0f:8a:88:51:4b:cd:31:99:51:7e:a5:71:0e:
         e8:c4:c1:cf:0a:f9:77:2d:56:94:74:84:94:d8:37:2d:d1:40:
         ad:a7:7a:44:e3:0d:78:6e:c3:23:b4:bd:95:f1:f6:a9:49:01:
         7e:73:a2:70:30:b7:6b:24:e6:56:6e:e7:3c:f8:fa:f6:ef:b1:
         39:70:a1:5e:b3:e1:80:2c:c3:29:b3:64:95:4a:37:35:06:a3:
         ce:95:28:0e:d2:22:37:04:09:f5:7b:07:9e:18:b5:3e:b6:94:
         db:22:6f:39:a5:e8:11:44:86:6e:17:7c:ae:71:44:0e:ca:42:
         43:f3:38:8f:5d:08:9e:dd:59:bf:b9:da:cf:fb:d6:4f:dc:6a:
         76:04:54:c6:39:ae:30:7b:25:a4:bd:01:38:70:16:c1:a4:62:
         8e:20:72:50:f6:30:48:d8:e7:cf:5a:08:04:1c:e2:5b:90:6d:
         8f:72:08:8e:0c:a4:c8:e8:31:af:e6:a0:d2:3b:79:a2:66:9e:
         3c:dd:51:b1
-----BEGIN CERTIFICATE-----
MIIEUDCCAzigAwIBAgICAL4wDQYJKoZIhvcNAQELBQAwgcIxCzAJBgNVBAYTAkJI
MRkwFwYDVQQIDBBSZXB1Ymxpa2EgU3Jwc2thMRMwEQYDVQQHDApCYW5qYSBMdWth
MSEwHwYDVQQKDBhFbGVrdHJvdGVobmlja2kgZmFrdWx0ZXQxFjAUBgNVBAsMDUty
aXB0b2dyYWZpamExDzANBgNVBAMMBnJvb3RDQTE3MDUGCSqGSIb3DQEJARYoZGpv
cmRqZS5wYWxhdmVzdHJhQHN0dWRlbnQuZXRmLnVuaWJsLm9yZzAeFw0xOTA1MzAx
NTU1MTJaFw0yMDA1MjkxNTU1MTJaMIGVMQswCQYDVQQGEwJCSDEZMBcGA1UECAwQ
UmVwdWJsaWthIFNycHNrYTEhMB8GA1UECgwYRWxla3Ryb3RlaG5pY2tpIGZha3Vs
dGV0MRYwFAYDVQQLDA1LcmlwdG9ncmFmaWphMQ4wDAYDVQQDDAV1c2VyMjEgMB4G
CSqGSIb3DQEJARYRdXNlcjJAc3R1ZGVudC5jb20wggEiMA0GCSqGSIb3DQEBAQUA
A4IBDwAwggEKAoIBAQC/D2JLKr6e5LHfapeE1iGpfi4yJ1pa2vONm3byyE2szPRJ
ymwVO+jRWPIcC/CslDDLb+z3HOFl7QwT1wnIhuk48hPFxQ0ln78871mHE7F/qH4f
nqpKxnrWOgxSnzdf3bllF2ImgtcMxn9ZVpQd5eXsO/9DmI8j9bQDB5SeUI4DfPxy
sfL+gFDM+U8IV4i9qPYJD3JcNfx7kjWWbhCiwPGhzvWO3UFsWi4H4JEUoDlt0Xe5
J6bhBD8/aLP4DTb1Bj8Ne+qh0pNR1ZIj2OooJwQPFdnCR+gOQURhirC1gKDmozfu
7rVhnfQqA71LpY1Utot+3CfJZDlayj2u+gpmw7CNAgMBAAGjezB5MAkGA1UdEwQC
MAAwLAYJYIZIAYb4QgENBB8WHU9wZW5TU0wgR2VuZXJhdGVkIENlcnRpZmljYXRl
MB0GA1UdDgQWBBQGD4sRt1uxq+lgpB36OEw/zPiPQzAfBgNVHSMEGDAWgBR98YFO
At+8m3DPZUNmyWx8FN+8JzANBgkqhkiG9w0BAQsFAAOCAQEAYvcv+kUIg4d7OrUh
X9e8YObybU+fDJkfEH3vSe3YDw2uPuRP0dSOnl9S+RgGBaEqDdbkXi1wI0qjV1sP
iohRS80xmVF+pXEO6MTBzwr5dy1WlHSElNg3LdFArad6ROMNeG7DI7S9lfH2qUkB
fnOicDC3ayTmVm7nPPj69u+xOXChXrPhgCzDKbNklUo3NQajzpUoDtIiNwQJ9XsH
nhi1PraU2yJvOaXoEUSGbhd8rnFEDspCQ/M4j10Int1Zv7naz/vWT9xqdgRUxjmu
MHslpL0BOHAWwaRijiByUPYwSNjnz1oIBBziW5Btj3IIjgykyOgxr+ag0jt5omae
PN1RsQ==
-----END CERTIFICATE-----
