Certificate:
    Data:
        Version: 3 (0x2)
        Serial Number: 191 (0xbf)
    Signature Algorithm: sha256WithRSAEncryption
        Issuer: C=BH, ST=Republika Srpska, L=Banja Luka, O=Elektrotehnicki fakultet, OU=Kriptografija, CN=rootCA/emailAddress=djordje.palavestra@student.etf.unibl.org
        Validity
            Not Before: May 30 17:07:35 2019 GMT
            Not After : May 29 17:07:35 2020 GMT
        Subject: C=BH, ST=Republika Srpska, O=Elektrotehnicki fakultet, OU=Kriptografija, CN=user1/emailAddress=user1@student.com
        Subject Public Key Info:
            Public Key Algorithm: rsaEncryption
                Public-Key: (2048 bit)
                Modulus:
                    00:bf:0f:62:4b:2a:be:9e:e4:b1:df:6a:97:84:d6:
                    21:a9:7e:2e:32:27:5a:5a:da:f3:8d:9b:76:f2:c8:
                    4d:ac:cc:f4:49:ca:6c:15:3b:e8:d1:58:f2:1c:0b:
                    f0:ac:94:30:cb:6f:ec:f7:1c:e1:65:ed:0c:13:d7:
                    09:c8:86:e9:38:f2:13:c5:c5:0d:25:9f:bf:3c:ef:
                    59:87:13:b1:7f:a8:7e:1f:9e:aa:4a:c6:7a:d6:3a:
                    0c:52:9f:37:5f:dd:b9:65:17:62:26:82:d7:0c:c6:
                    7f:59:56:94:1d:e5:e5:ec:3b:ff:43:98:8f:23:f5:
                    b4:03:07:94:9e:50:8e:03:7c:fc:72:b1:f2:fe:80:
                    50:cc:f9:4f:08:57:88:bd:a8:f6:09:0f:72:5c:35:
                    fc:7b:92:35:96:6e:10:a2:c0:f1:a1:ce:f5:8e:dd:
                    41:6c:5a:2e:07:e0:91:14:a0:39:6d:d1:77:b9:27:
                    a6:e1:04:3f:3f:68:b3:f8:0d:36:f5:06:3f:0d:7b:
                    ea:a1:d2:93:51:d5:92:23:d8:ea:28:27:04:0f:15:
                    d9:c2:47:e8:0e:41:44:61:8a:b0:b5:80:a0:e6:a3:
                    37:ee:ee:b5:61:9d:f4:2a:03:bd:4b:a5:8d:54:b6:
                    8b:7e:dc:27:c9:64:39:5a:ca:3d:ae:fa:0a:66:c3:
                    b0:8d
                Exponent: 65537 (0x10001)
        X509v3 extensions:
            X509v3 Basic Constraints: 
                CA:FALSE
            Netscape Comment: 
                OpenSSL Generated Certificate
            X509v3 Subject Key Identifier: 
                06:0F:8B:11:B7:5B:B1:AB:E9:60:A4:1D:FA:38:4C:3F:CC:F8:8F:43
            X509v3 Authority Key Identifier: 
                keyid:7D:F1:81:4E:02:DF:BC:9B:70:CF:65:43:66:C9:6C:7C:14:DF:BC:27

    Signature Algorithm: sha256WithRSAEncryption
         ce:4f:b3:ae:02:4b:97:1b:7d:46:95:80:f1:65:ae:31:8d:03:
         64:65:4e:3e:f0:c2:ea:84:71:fb:bc:df:34:bc:31:f6:f0:eb:
         8c:fb:59:d6:d2:53:fe:8f:dc:65:75:54:9b:e8:80:39:73:6e:
         66:59:90:41:3c:28:97:56:27:3b:25:d0:90:68:cd:9a:60:3c:
         a1:c9:6b:71:4e:33:7b:92:ab:20:a8:37:3c:b1:ea:7a:ec:e9:
         b8:23:eb:0d:b7:07:0b:a9:ca:a2:be:1b:8c:d4:34:13:56:a7:
         0f:db:e5:a3:41:48:4d:98:f6:b7:9f:88:c5:73:a8:1a:e4:de:
         6f:3e:04:7a:ae:dc:0b:93:8d:63:8d:4c:ad:d9:e8:b3:98:ab:
         13:24:e4:6d:c2:03:5e:32:fb:85:74:d8:5a:14:71:c8:42:3b:
         79:af:9c:1d:01:1a:82:14:f7:6f:e9:c7:c1:b0:cb:bb:70:6b:
         d4:7e:9f:fe:66:98:d7:fe:dc:3f:f8:01:66:97:fb:e1:88:3e:
         54:a6:a2:46:f4:21:72:91:7e:e9:83:8c:f3:2e:51:b8:26:a8:
         d4:00:3d:17:c7:c8:99:d7:bd:a1:c5:f2:1b:7d:3f:a7:21:46:
         93:cd:47:a8:12:06:d2:5f:9e:23:9d:be:c0:2c:8b:d0:06:65:
         ff:b0:88:02
-----BEGIN CERTIFICATE-----
MIIEUDCCAzigAwIBAgICAL8wDQYJKoZIhvcNAQELBQAwgcIxCzAJBgNVBAYTAkJI
MRkwFwYDVQQIDBBSZXB1Ymxpa2EgU3Jwc2thMRMwEQYDVQQHDApCYW5qYSBMdWth
MSEwHwYDVQQKDBhFbGVrdHJvdGVobmlja2kgZmFrdWx0ZXQxFjAUBgNVBAsMDUty
aXB0b2dyYWZpamExDzANBgNVBAMMBnJvb3RDQTE3MDUGCSqGSIb3DQEJARYoZGpv
cmRqZS5wYWxhdmVzdHJhQHN0dWRlbnQuZXRmLnVuaWJsLm9yZzAeFw0xOTA1MzAx
NzA3MzVaFw0yMDA1MjkxNzA3MzVaMIGVMQswCQYDVQQGEwJCSDEZMBcGA1UECAwQ
UmVwdWJsaWthIFNycHNrYTEhMB8GA1UECgwYRWxla3Ryb3RlaG5pY2tpIGZha3Vs
dGV0MRYwFAYDVQQLDA1LcmlwdG9ncmFmaWphMQ4wDAYDVQQDDAV1c2VyMTEgMB4G
CSqGSIb3DQEJARYRdXNlcjFAc3R1ZGVudC5jb20wggEiMA0GCSqGSIb3DQEBAQUA
A4IBDwAwggEKAoIBAQC/D2JLKr6e5LHfapeE1iGpfi4yJ1pa2vONm3byyE2szPRJ
ymwVO+jRWPIcC/CslDDLb+z3HOFl7QwT1wnIhuk48hPFxQ0ln78871mHE7F/qH4f
nqpKxnrWOgxSnzdf3bllF2ImgtcMxn9ZVpQd5eXsO/9DmI8j9bQDB5SeUI4DfPxy
sfL+gFDM+U8IV4i9qPYJD3JcNfx7kjWWbhCiwPGhzvWO3UFsWi4H4JEUoDlt0Xe5
J6bhBD8/aLP4DTb1Bj8Ne+qh0pNR1ZIj2OooJwQPFdnCR+gOQURhirC1gKDmozfu
7rVhnfQqA71LpY1Utot+3CfJZDlayj2u+gpmw7CNAgMBAAGjezB5MAkGA1UdEwQC
MAAwLAYJYIZIAYb4QgENBB8WHU9wZW5TU0wgR2VuZXJhdGVkIENlcnRpZmljYXRl
MB0GA1UdDgQWBBQGD4sRt1uxq+lgpB36OEw/zPiPQzAfBgNVHSMEGDAWgBR98YFO
At+8m3DPZUNmyWx8FN+8JzANBgkqhkiG9w0BAQsFAAOCAQEAzk+zrgJLlxt9RpWA
8WWuMY0DZGVOPvDC6oRx+7zfNLwx9vDrjPtZ1tJT/o/cZXVUm+iAOXNuZlmQQTwo
l1YnOyXQkGjNmmA8oclrcU4ze5KrIKg3PLHqeuzpuCPrDbcHC6nKor4bjNQ0E1an
D9vlo0FITZj2t5+IxXOoGuTebz4Eeq7cC5ONY41Mrdnos5irEyTkbcIDXjL7hXTY
WhRxyEI7ea+cHQEaghT3b+nHwbDLu3Br1H6f/maY1/7cP/gBZpf74Yg+VKaiRvQh
cpF+6YOM8y5RuCao1AA9F8fImde9ocXyG30/pyFGk81HqBIG0l+eI52+wCyL0AZl
/7CIAg==
-----END CERTIFICATE-----
