Certificate:
    Data:
        Version: 3 (0x2)
        Serial Number: 192 (0xc0)
    Signature Algorithm: sha256WithRSAEncryption
        Issuer: C=BH, ST=Republika Srpska, L=Banja Luka, O=Elektrotehnicki fakultet, OU=Kriptografija, CN=rootCA/emailAddress=djordje.palavestra@student.etf.unibl.org
        Validity
            Not Before: May 30 17:08:49 2019 GMT
            Not After : May 29 17:08:49 2020 GMT
        Subject: C=BH, ST=Republika Srpska, O=Elektrotehnicki fakultet, OU=Kriptografija, CN=user2/emailAddress=user2@student.com
        Subject Public Key Info:
            Public Key Algorithm: rsaEncryption
                Public-Key: (2048 bit)
                Modulus:
                    00:bf:0f:62:4b:2a:be:9e:e4:b1:df:6a:97:84:d6:
                    21:a9:7e:2e:32:27:5a:5a:da:f3:8d:9b:76:f2:c8:
                    4d:ac:cc:f4:49:ca:6c:15:3b:e8:d1:58:f2:1c:0b:
                    f0:ac:94:30:cb:6f:ec:f7:1c:e1:65:ed:0c:13:d7:
                    09:c8:86:e9:38:f2:13:c5:c5:0d:25:9f:bf:3c:ef:
                    59:87:13:b1:7f:a8:7e:1f:9e:aa:4a:c6:7a:d6:3a:
                    0c:52:9f:37:5f:dd:b9:65:17:62:26:82:d7:0c:c6:
                    7f:59:56:94:1d:e5:e5:ec:3b:ff:43:98:8f:23:f5:
                    b4:03:07:94:9e:50:8e:03:7c:fc:72:b1:f2:fe:80:
                    50:cc:f9:4f:08:57:88:bd:a8:f6:09:0f:72:5c:35:
                    fc:7b:92:35:96:6e:10:a2:c0:f1:a1:ce:f5:8e:dd:
                    41:6c:5a:2e:07:e0:91:14:a0:39:6d:d1:77:b9:27:
                    a6:e1:04:3f:3f:68:b3:f8:0d:36:f5:06:3f:0d:7b:
                    ea:a1:d2:93:51:d5:92:23:d8:ea:28:27:04:0f:15:
                    d9:c2:47:e8:0e:41:44:61:8a:b0:b5:80:a0:e6:a3:
                    37:ee:ee:b5:61:9d:f4:2a:03:bd:4b:a5:8d:54:b6:
                    8b:7e:dc:27:c9:64:39:5a:ca:3d:ae:fa:0a:66:c3:
                    b0:8d
                Exponent: 65537 (0x10001)
        X509v3 extensions:
            X509v3 Basic Constraints: 
                CA:FALSE
            Netscape Comment: 
                OpenSSL Generated Certificate
            X509v3 Subject Key Identifier: 
                06:0F:8B:11:B7:5B:B1:AB:E9:60:A4:1D:FA:38:4C:3F:CC:F8:8F:43
            X509v3 Authority Key Identifier: 
                keyid:7D:F1:81:4E:02:DF:BC:9B:70:CF:65:43:66:C9:6C:7C:14:DF:BC:27

    Signature Algorithm: sha256WithRSAEncryption
         10:c2:b5:c9:9b:7f:58:f5:09:ec:77:bb:ba:6c:c9:d2:ca:8a:
         4d:46:1c:16:29:72:96:8e:8a:a4:af:91:db:38:96:43:bb:b9:
         1a:7d:94:15:ec:fc:18:29:9f:d5:fa:bb:93:8f:b2:cf:5b:ee:
         d7:3f:c9:97:09:e8:6c:5c:64:70:bd:34:18:26:c9:36:03:ec:
         89:51:d1:9c:88:69:1f:00:43:08:55:b2:92:3f:e9:d3:25:c7:
         c6:e6:32:5f:14:6d:c7:26:04:c3:56:e4:1c:97:b1:34:db:85:
         ab:a7:78:ad:73:c7:61:c3:63:ce:a7:c0:2e:e7:45:11:e2:a4:
         e8:57:fd:d8:a8:56:48:d5:1a:7e:16:a0:3e:e4:b6:3b:7d:6c:
         a5:32:83:0b:33:48:19:81:e3:2d:56:04:74:9e:16:4c:95:e7:
         b1:66:82:00:f5:5e:c4:c5:fd:17:51:21:f2:59:ae:65:4e:4c:
         72:80:f8:31:15:17:9e:51:2b:8b:4e:aa:e0:0a:3d:61:20:a6:
         e2:44:ed:4d:93:20:d2:91:cd:06:02:01:94:8c:d3:71:a1:1e:
         30:ac:8c:75:31:a2:a5:36:72:04:90:d3:46:77:b8:00:cf:60:
         59:a6:12:5d:42:42:b4:e2:d7:82:56:56:03:a8:c8:ce:f4:e2:
         b9:39:21:d4
-----BEGIN CERTIFICATE-----
MIIEUDCCAzigAwIBAgICAMAwDQYJKoZIhvcNAQELBQAwgcIxCzAJBgNVBAYTAkJI
MRkwFwYDVQQIDBBSZXB1Ymxpa2EgU3Jwc2thMRMwEQYDVQQHDApCYW5qYSBMdWth
MSEwHwYDVQQKDBhFbGVrdHJvdGVobmlja2kgZmFrdWx0ZXQxFjAUBgNVBAsMDUty
aXB0b2dyYWZpamExDzANBgNVBAMMBnJvb3RDQTE3MDUGCSqGSIb3DQEJARYoZGpv
cmRqZS5wYWxhdmVzdHJhQHN0dWRlbnQuZXRmLnVuaWJsLm9yZzAeFw0xOTA1MzAx
NzA4NDlaFw0yMDA1MjkxNzA4NDlaMIGVMQswCQYDVQQGEwJCSDEZMBcGA1UECAwQ
UmVwdWJsaWthIFNycHNrYTEhMB8GA1UECgwYRWxla3Ryb3RlaG5pY2tpIGZha3Vs
dGV0MRYwFAYDVQQLDA1LcmlwdG9ncmFmaWphMQ4wDAYDVQQDDAV1c2VyMjEgMB4G
CSqGSIb3DQEJARYRdXNlcjJAc3R1ZGVudC5jb20wggEiMA0GCSqGSIb3DQEBAQUA
A4IBDwAwggEKAoIBAQC/D2JLKr6e5LHfapeE1iGpfi4yJ1pa2vONm3byyE2szPRJ
ymwVO+jRWPIcC/CslDDLb+z3HOFl7QwT1wnIhuk48hPFxQ0ln78871mHE7F/qH4f
nqpKxnrWOgxSnzdf3bllF2ImgtcMxn9ZVpQd5eXsO/9DmI8j9bQDB5SeUI4DfPxy
sfL+gFDM+U8IV4i9qPYJD3JcNfx7kjWWbhCiwPGhzvWO3UFsWi4H4JEUoDlt0Xe5
J6bhBD8/aLP4DTb1Bj8Ne+qh0pNR1ZIj2OooJwQPFdnCR+gOQURhirC1gKDmozfu
7rVhnfQqA71LpY1Utot+3CfJZDlayj2u+gpmw7CNAgMBAAGjezB5MAkGA1UdEwQC
MAAwLAYJYIZIAYb4QgENBB8WHU9wZW5TU0wgR2VuZXJhdGVkIENlcnRpZmljYXRl
MB0GA1UdDgQWBBQGD4sRt1uxq+lgpB36OEw/zPiPQzAfBgNVHSMEGDAWgBR98YFO
At+8m3DPZUNmyWx8FN+8JzANBgkqhkiG9w0BAQsFAAOCAQEAEMK1yZt/WPUJ7He7
umzJ0sqKTUYcFilylo6KpK+R2ziWQ7u5Gn2UFez8GCmf1fq7k4+yz1vu1z/Jlwno
bFxkcL00GCbJNgPsiVHRnIhpHwBDCFWykj/p0yXHxuYyXxRtxyYEw1bkHJexNNuF
q6d4rXPHYcNjzqfALudFEeKk6Ff92KhWSNUafhagPuS2O31spTKDCzNIGYHjLVYE
dJ4WTJXnsWaCAPVexMX9F1Eh8lmuZU5McoD4MRUXnlEri06q4Ao9YSCm4kTtTZMg
0pHNBgIBlIzTcaEeMKyMdTGipTZyBJDTRne4AM9gWaYSXUJCtOLXglZWA6jIzvTi
uTkh1A==
-----END CERTIFICATE-----
