Certificate:
    Data:
        Version: 3 (0x2)
        Serial Number: 193 (0xc1)
    Signature Algorithm: sha256WithRSAEncryption
        Issuer: C=BH, ST=Republika Srpska, L=Banja Luka, O=Elektrotehnicki fakultet, OU=Kriptografija, CN=rootCA/emailAddress=djordje.palavestra@student.etf.unibl.org
        Validity
            Not Before: May 30 17:09:25 2019 GMT
            Not After : May 29 17:09:25 2020 GMT
        Subject: C=BH, ST=Republika Srpska, O=Elektrotehnicki fakultet, OU=Kriptografija, CN=user3/emailAddress=user3@student.com
        Subject Public Key Info:
            Public Key Algorithm: rsaEncryption
                Public-Key: (2048 bit)
                Modulus:
                    00:bf:0f:62:4b:2a:be:9e:e4:b1:df:6a:97:84:d6:
                    21:a9:7e:2e:32:27:5a:5a:da:f3:8d:9b:76:f2:c8:
                    4d:ac:cc:f4:49:ca:6c:15:3b:e8:d1:58:f2:1c:0b:
                    f0:ac:94:30:cb:6f:ec:f7:1c:e1:65:ed:0c:13:d7:
                    09:c8:86:e9:38:f2:13:c5:c5:0d:25:9f:bf:3c:ef:
                    59:87:13:b1:7f:a8:7e:1f:9e:aa:4a:c6:7a:d6:3a:
                    0c:52:9f:37:5f:dd:b9:65:17:62:26:82:d7:0c:c6:
                    7f:59:56:94:1d:e5:e5:ec:3b:ff:43:98:8f:23:f5:
                    b4:03:07:94:9e:50:8e:03:7c:fc:72:b1:f2:fe:80:
                    50:cc:f9:4f:08:57:88:bd:a8:f6:09:0f:72:5c:35:
                    fc:7b:92:35:96:6e:10:a2:c0:f1:a1:ce:f5:8e:dd:
                    41:6c:5a:2e:07:e0:91:14:a0:39:6d:d1:77:b9:27:
                    a6:e1:04:3f:3f:68:b3:f8:0d:36:f5:06:3f:0d:7b:
                    ea:a1:d2:93:51:d5:92:23:d8:ea:28:27:04:0f:15:
                    d9:c2:47:e8:0e:41:44:61:8a:b0:b5:80:a0:e6:a3:
                    37:ee:ee:b5:61:9d:f4:2a:03:bd:4b:a5:8d:54:b6:
                    8b:7e:dc:27:c9:64:39:5a:ca:3d:ae:fa:0a:66:c3:
                    b0:8d
                Exponent: 65537 (0x10001)
        X509v3 extensions:
            X509v3 Basic Constraints: 
                CA:FALSE
            Netscape Comment: 
                OpenSSL Generated Certificate
            X509v3 Subject Key Identifier: 
                06:0F:8B:11:B7:5B:B1:AB:E9:60:A4:1D:FA:38:4C:3F:CC:F8:8F:43
            X509v3 Authority Key Identifier: 
                keyid:7D:F1:81:4E:02:DF:BC:9B:70:CF:65:43:66:C9:6C:7C:14:DF:BC:27

    Signature Algorithm: sha256WithRSAEncryption
         c2:26:05:6a:1a:0b:0f:ad:f3:f3:62:69:2e:24:90:15:ad:59:
         f0:bf:fe:30:e6:95:d9:68:9e:d8:0f:35:04:64:fc:66:ae:a3:
         fc:79:9b:63:4f:8b:72:b1:a7:40:91:f1:ca:52:aa:c8:0a:98:
         ee:4b:36:5a:21:9c:b7:41:69:66:5b:7f:8c:22:c7:3c:6b:a7:
         ca:b7:de:7b:48:bf:a4:10:e7:67:e2:90:cd:4f:b2:8b:3c:5e:
         6f:70:d9:ca:e4:c7:fc:9a:88:38:86:15:83:2c:4f:82:37:bd:
         58:07:42:23:09:98:d7:34:cb:7b:f7:1b:ff:f6:48:36:dc:ba:
         83:e2:57:4f:b8:66:44:ae:22:17:2f:55:0f:03:58:dd:6b:20:
         97:4e:69:46:9f:2b:2f:c2:22:f4:12:7e:f8:d4:14:45:a2:d8:
         46:2c:c4:e6:83:ce:4c:19:00:58:cc:0c:30:1f:7b:ec:11:0f:
         60:0d:6c:b8:34:f4:1d:a6:2d:c3:07:fe:3d:e8:ce:af:b5:08:
         54:fd:1b:62:ef:1e:93:c4:43:01:88:4c:6e:8c:0e:fc:56:51:
         77:02:47:67:90:a9:eb:fc:48:2d:14:fb:c5:69:f3:4d:a0:7c:
         42:5a:d9:5c:37:19:0d:ec:31:51:6c:16:7a:59:04:c3:f3:a6:
         29:0a:66:4f
-----BEGIN CERTIFICATE-----
MIIEUDCCAzigAwIBAgICAMEwDQYJKoZIhvcNAQELBQAwgcIxCzAJBgNVBAYTAkJI
MRkwFwYDVQQIDBBSZXB1Ymxpa2EgU3Jwc2thMRMwEQYDVQQHDApCYW5qYSBMdWth
MSEwHwYDVQQKDBhFbGVrdHJvdGVobmlja2kgZmFrdWx0ZXQxFjAUBgNVBAsMDUty
aXB0b2dyYWZpamExDzANBgNVBAMMBnJvb3RDQTE3MDUGCSqGSIb3DQEJARYoZGpv
cmRqZS5wYWxhdmVzdHJhQHN0dWRlbnQuZXRmLnVuaWJsLm9yZzAeFw0xOTA1MzAx
NzA5MjVaFw0yMDA1MjkxNzA5MjVaMIGVMQswCQYDVQQGEwJCSDEZMBcGA1UECAwQ
UmVwdWJsaWthIFNycHNrYTEhMB8GA1UECgwYRWxla3Ryb3RlaG5pY2tpIGZha3Vs
dGV0MRYwFAYDVQQLDA1LcmlwdG9ncmFmaWphMQ4wDAYDVQQDDAV1c2VyMzEgMB4G
CSqGSIb3DQEJARYRdXNlcjNAc3R1ZGVudC5jb20wggEiMA0GCSqGSIb3DQEBAQUA
A4IBDwAwggEKAoIBAQC/D2JLKr6e5LHfapeE1iGpfi4yJ1pa2vONm3byyE2szPRJ
ymwVO+jRWPIcC/CslDDLb+z3HOFl7QwT1wnIhuk48hPFxQ0ln78871mHE7F/qH4f
nqpKxnrWOgxSnzdf3bllF2ImgtcMxn9ZVpQd5eXsO/9DmI8j9bQDB5SeUI4DfPxy
sfL+gFDM+U8IV4i9qPYJD3JcNfx7kjWWbhCiwPGhzvWO3UFsWi4H4JEUoDlt0Xe5
J6bhBD8/aLP4DTb1Bj8Ne+qh0pNR1ZIj2OooJwQPFdnCR+gOQURhirC1gKDmozfu
7rVhnfQqA71LpY1Utot+3CfJZDlayj2u+gpmw7CNAgMBAAGjezB5MAkGA1UdEwQC
MAAwLAYJYIZIAYb4QgENBB8WHU9wZW5TU0wgR2VuZXJhdGVkIENlcnRpZmljYXRl
MB0GA1UdDgQWBBQGD4sRt1uxq+lgpB36OEw/zPiPQzAfBgNVHSMEGDAWgBR98YFO
At+8m3DPZUNmyWx8FN+8JzANBgkqhkiG9w0BAQsFAAOCAQEAwiYFahoLD63z82Jp
LiSQFa1Z8L/+MOaV2Wie2A81BGT8Zq6j/HmbY0+LcrGnQJHxylKqyAqY7ks2WiGc
t0FpZlt/jCLHPGunyrfee0i/pBDnZ+KQzU+yizxeb3DZyuTH/JqIOIYVgyxPgje9
WAdCIwmY1zTLe/cb//ZINty6g+JXT7hmRK4iFy9VDwNY3Wsgl05pRp8rL8Ii9BJ+
+NQURaLYRizE5oPOTBkAWMwMMB977BEPYA1suDT0HaYtwwf+PejOr7UIVP0bYu8e
k8RDAYhMbowO/FZRdwJHZ5Cp6/xILRT7xWnzTaB8QlrZXDcZDewxUWwWelkEw/Om
KQpmTw==
-----END CERTIFICATE-----
