Certificate:
    Data:
        Version: 3 (0x2)
        Serial Number: 194 (0xc2)
    Signature Algorithm: sha256WithRSAEncryption
        Issuer: C=BH, ST=Republika Srpska, L=Banja Luka, O=Elektrotehnicki fakultet, OU=Kriptografija, CN=rootCA/emailAddress=djordje.palavestra@student.etf.unibl.org
        Validity
            Not Before: May 30 18:43:43 2019 GMT
            Not After : May 29 18:43:43 2020 GMT
        Subject: C=BH, ST=Republika Srpska, O=Elektrotehnicki fakultet, OU=Kriptografija, CN=user1/emailAddress=user1@student.com
        Subject Public Key Info:
            Public Key Algorithm: rsaEncryption
                Public-Key: (2048 bit)
                Modulus:
                    00:bf:0f:62:4b:2a:be:9e:e4:b1:df:6a:97:84:d6:
                    21:a9:7e:2e:32:27:5a:5a:da:f3:8d:9b:76:f2:c8:
                    4d:ac:cc:f4:49:ca:6c:15:3b:e8:d1:58:f2:1c:0b:
                    f0:ac:94:30:cb:6f:ec:f7:1c:e1:65:ed:0c:13:d7:
                    09:c8:86:e9:38:f2:13:c5:c5:0d:25:9f:bf:3c:ef:
                    59:87:13:b1:7f:a8:7e:1f:9e:aa:4a:c6:7a:d6:3a:
                    0c:52:9f:37:5f:dd:b9:65:17:62:26:82:d7:0c:c6:
                    7f:59:56:94:1d:e5:e5:ec:3b:ff:43:98:8f:23:f5:
                    b4:03:07:94:9e:50:8e:03:7c:fc:72:b1:f2:fe:80:
                    50:cc:f9:4f:08:57:88:bd:a8:f6:09:0f:72:5c:35:
                    fc:7b:92:35:96:6e:10:a2:c0:f1:a1:ce:f5:8e:dd:
                    41:6c:5a:2e:07:e0:91:14:a0:39:6d:d1:77:b9:27:
                    a6:e1:04:3f:3f:68:b3:f8:0d:36:f5:06:3f:0d:7b:
                    ea:a1:d2:93:51:d5:92:23:d8:ea:28:27:04:0f:15:
                    d9:c2:47:e8:0e:41:44:61:8a:b0:b5:80:a0:e6:a3:
                    37:ee:ee:b5:61:9d:f4:2a:03:bd:4b:a5:8d:54:b6:
                    8b:7e:dc:27:c9:64:39:5a:ca:3d:ae:fa:0a:66:c3:
                    b0:8d
                Exponent: 65537 (0x10001)
        X509v3 extensions:
            X509v3 Basic Constraints: 
                CA:FALSE
            Netscape Comment: 
                OpenSSL Generated Certificate
            X509v3 Subject Key Identifier: 
                06:0F:8B:11:B7:5B:B1:AB:E9:60:A4:1D:FA:38:4C:3F:CC:F8:8F:43
            X509v3 Authority Key Identifier: 
                keyid:7D:F1:81:4E:02:DF:BC:9B:70:CF:65:43:66:C9:6C:7C:14:DF:BC:27

    Signature Algorithm: sha256WithRSAEncryption
         ef:e2:39:1b:79:4b:f3:7a:6d:6c:e7:26:af:da:3f:0d:56:53:
         2f:4b:46:26:62:72:83:82:36:86:08:be:6c:fa:06:46:d4:14:
         e3:76:29:ee:88:1b:19:2b:6f:2c:8f:d7:27:9c:61:59:30:d2:
         0b:eb:82:5c:72:d0:a0:a9:dd:8b:81:10:39:e6:1e:07:c9:27:
         a9:00:e3:73:57:13:f7:09:1d:a4:37:39:9a:52:58:68:c5:2d:
         37:a7:5d:08:58:b2:13:0e:c5:52:5b:0c:01:ce:eb:14:7d:8f:
         cf:3b:7a:68:90:b0:dc:1d:5e:86:4c:15:ae:77:c8:3b:07:27:
         e5:2d:fc:75:9a:b7:75:9c:5b:90:26:9e:7d:ad:95:cd:24:f9:
         2f:c0:44:6b:47:44:40:3b:0b:a2:72:54:d1:8c:9a:78:d3:f3:
         5b:6b:5d:b8:ac:a9:b9:68:dc:74:8b:06:ac:c1:70:3a:c7:8c:
         23:aa:55:62:76:fc:4c:bc:c4:9b:f6:2b:d9:c7:a4:12:fd:ff:
         eb:f1:bd:cb:8d:bc:c8:a1:23:d1:96:0e:a5:98:68:f4:a2:a3:
         ec:7f:2e:9e:9e:9d:c7:b4:2f:58:1d:56:8f:21:ec:a8:ff:8d:
         48:6d:f5:b1:51:cc:b0:8a:bc:98:f6:c2:0a:88:0a:e1:0b:0a:
         2c:1d:62:e4
-----BEGIN CERTIFICATE-----
MIIEUDCCAzigAwIBAgICAMIwDQYJKoZIhvcNAQELBQAwgcIxCzAJBgNVBAYTAkJI
MRkwFwYDVQQIDBBSZXB1Ymxpa2EgU3Jwc2thMRMwEQYDVQQHDApCYW5qYSBMdWth
MSEwHwYDVQQKDBhFbGVrdHJvdGVobmlja2kgZmFrdWx0ZXQxFjAUBgNVBAsMDUty
aXB0b2dyYWZpamExDzANBgNVBAMMBnJvb3RDQTE3MDUGCSqGSIb3DQEJARYoZGpv
cmRqZS5wYWxhdmVzdHJhQHN0dWRlbnQuZXRmLnVuaWJsLm9yZzAeFw0xOTA1MzAx
ODQzNDNaFw0yMDA1MjkxODQzNDNaMIGVMQswCQYDVQQGEwJCSDEZMBcGA1UECAwQ
UmVwdWJsaWthIFNycHNrYTEhMB8GA1UECgwYRWxla3Ryb3RlaG5pY2tpIGZha3Vs
dGV0MRYwFAYDVQQLDA1LcmlwdG9ncmFmaWphMQ4wDAYDVQQDDAV1c2VyMTEgMB4G
CSqGSIb3DQEJARYRdXNlcjFAc3R1ZGVudC5jb20wggEiMA0GCSqGSIb3DQEBAQUA
A4IBDwAwggEKAoIBAQC/D2JLKr6e5LHfapeE1iGpfi4yJ1pa2vONm3byyE2szPRJ
ymwVO+jRWPIcC/CslDDLb+z3HOFl7QwT1wnIhuk48hPFxQ0ln78871mHE7F/qH4f
nqpKxnrWOgxSnzdf3bllF2ImgtcMxn9ZVpQd5eXsO/9DmI8j9bQDB5SeUI4DfPxy
sfL+gFDM+U8IV4i9qPYJD3JcNfx7kjWWbhCiwPGhzvWO3UFsWi4H4JEUoDlt0Xe5
J6bhBD8/aLP4DTb1Bj8Ne+qh0pNR1ZIj2OooJwQPFdnCR+gOQURhirC1gKDmozfu
7rVhnfQqA71LpY1Utot+3CfJZDlayj2u+gpmw7CNAgMBAAGjezB5MAkGA1UdEwQC
MAAwLAYJYIZIAYb4QgENBB8WHU9wZW5TU0wgR2VuZXJhdGVkIENlcnRpZmljYXRl
MB0GA1UdDgQWBBQGD4sRt1uxq+lgpB36OEw/zPiPQzAfBgNVHSMEGDAWgBR98YFO
At+8m3DPZUNmyWx8FN+8JzANBgkqhkiG9w0BAQsFAAOCAQEA7+I5G3lL83ptbOcm
r9o/DVZTL0tGJmJyg4I2hgi+bPoGRtQU43Yp7ogbGStvLI/XJ5xhWTDSC+uCXHLQ
oKndi4EQOeYeB8knqQDjc1cT9wkdpDc5mlJYaMUtN6ddCFiyEw7FUlsMAc7rFH2P
zzt6aJCw3B1ehkwVrnfIOwcn5S38dZq3dZxbkCaefa2VzST5L8BEa0dEQDsLonJU
0YyaeNPzW2tduKypuWjcdIsGrMFwOseMI6pVYnb8TLzEm/Yr2cekEv3/6/G9y428
yKEj0ZYOpZho9KKj7H8unp6dx7QvWB1WjyHsqP+NSG31sVHMsIq8mPbCCogK4QsK
LB1i5A==
-----END CERTIFICATE-----
