Certificate:
    Data:
        Version: 3 (0x2)
        Serial Number: 195 (0xc3)
    Signature Algorithm: sha256WithRSAEncryption
        Issuer: C=BH, ST=Republika Srpska, L=Banja Luka, O=Elektrotehnicki fakultet, OU=Kriptografija, CN=rootCA/emailAddress=djordje.palavestra@student.etf.unibl.org
        Validity
            Not Before: May 31 09:14:16 2019 GMT
            Not After : May 30 09:14:16 2020 GMT
        Subject: C=BH, ST=Republika Srpska, O=Elektrotehnicki fakultet, OU=Kriptografija, CN=user1/emailAddress=user1@gmail.com
        Subject Public Key Info:
            Public Key Algorithm: rsaEncryption
                Public-Key: (2048 bit)
                Modulus:
                    00:bf:0f:62:4b:2a:be:9e:e4:b1:df:6a:97:84:d6:
                    21:a9:7e:2e:32:27:5a:5a:da:f3:8d:9b:76:f2:c8:
                    4d:ac:cc:f4:49:ca:6c:15:3b:e8:d1:58:f2:1c:0b:
                    f0:ac:94:30:cb:6f:ec:f7:1c:e1:65:ed:0c:13:d7:
                    09:c8:86:e9:38:f2:13:c5:c5:0d:25:9f:bf:3c:ef:
                    59:87:13:b1:7f:a8:7e:1f:9e:aa:4a:c6:7a:d6:3a:
                    0c:52:9f:37:5f:dd:b9:65:17:62:26:82:d7:0c:c6:
                    7f:59:56:94:1d:e5:e5:ec:3b:ff:43:98:8f:23:f5:
                    b4:03:07:94:9e:50:8e:03:7c:fc:72:b1:f2:fe:80:
                    50:cc:f9:4f:08:57:88:bd:a8:f6:09:0f:72:5c:35:
                    fc:7b:92:35:96:6e:10:a2:c0:f1:a1:ce:f5:8e:dd:
                    41:6c:5a:2e:07:e0:91:14:a0:39:6d:d1:77:b9:27:
                    a6:e1:04:3f:3f:68:b3:f8:0d:36:f5:06:3f:0d:7b:
                    ea:a1:d2:93:51:d5:92:23:d8:ea:28:27:04:0f:15:
                    d9:c2:47:e8:0e:41:44:61:8a:b0:b5:80:a0:e6:a3:
                    37:ee:ee:b5:61:9d:f4:2a:03:bd:4b:a5:8d:54:b6:
                    8b:7e:dc:27:c9:64:39:5a:ca:3d:ae:fa:0a:66:c3:
                    b0:8d
                Exponent: 65537 (0x10001)
        X509v3 extensions:
            X509v3 Basic Constraints: 
                CA:FALSE
            Netscape Comment: 
                OpenSSL Generated Certificate
            X509v3 Subject Key Identifier: 
                06:0F:8B:11:B7:5B:B1:AB:E9:60:A4:1D:FA:38:4C:3F:CC:F8:8F:43
            X509v3 Authority Key Identifier: 
                keyid:7D:F1:81:4E:02:DF:BC:9B:70:CF:65:43:66:C9:6C:7C:14:DF:BC:27

    Signature Algorithm: sha256WithRSAEncryption
         11:b0:df:ae:f2:88:f1:0c:fd:f4:6d:16:c1:cf:22:ff:2e:8d:
         0a:5c:f8:33:ca:34:da:32:7d:3b:95:28:49:76:fd:41:d7:ca:
         59:2f:db:f5:f9:af:a5:b4:8d:a4:ac:f5:c5:10:6a:50:cc:35:
         e0:e1:9e:45:86:f4:5d:24:90:d4:bb:00:bd:eb:8c:9d:a4:97:
         33:97:7e:74:79:9c:a1:34:15:61:0c:17:a2:a2:49:d4:2f:36:
         0b:63:65:a9:7c:60:b3:2b:34:62:93:5f:4d:8d:ba:4c:df:fb:
         ac:55:45:5d:30:46:d6:3d:1c:e3:6b:e6:89:69:75:ae:8c:f9:
         14:22:86:47:2e:42:0b:f5:59:cf:0d:0d:0d:3c:de:f1:40:fd:
         08:02:9d:3d:bc:23:6e:f9:43:b9:19:6a:4e:eb:e9:05:a0:03:
         c2:da:02:98:ad:d2:ed:e6:a9:3d:95:dd:26:0e:52:04:d8:da:
         61:d3:43:92:ec:16:28:1a:f3:98:46:de:31:b1:49:61:7e:97:
         e0:cd:e6:95:0b:2e:88:a3:46:a5:d8:26:14:21:f9:c8:4b:86:
         5a:99:e8:64:87:25:f8:90:a8:e6:3d:9b:5a:c6:03:bc:10:f7:
         3d:fb:8b:25:13:05:31:71:d9:51:a3:aa:8b:7f:1e:69:fd:8d:
         79:9c:49:f9
-----BEGIN CERTIFICATE-----
MIIETjCCAzagAwIBAgICAMMwDQYJKoZIhvcNAQELBQAwgcIxCzAJBgNVBAYTAkJI
MRkwFwYDVQQIDBBSZXB1Ymxpa2EgU3Jwc2thMRMwEQYDVQQHDApCYW5qYSBMdWth
MSEwHwYDVQQKDBhFbGVrdHJvdGVobmlja2kgZmFrdWx0ZXQxFjAUBgNVBAsMDUty
aXB0b2dyYWZpamExDzANBgNVBAMMBnJvb3RDQTE3MDUGCSqGSIb3DQEJARYoZGpv
cmRqZS5wYWxhdmVzdHJhQHN0dWRlbnQuZXRmLnVuaWJsLm9yZzAeFw0xOTA1MzEw
OTE0MTZaFw0yMDA1MzAwOTE0MTZaMIGTMQswCQYDVQQGEwJCSDEZMBcGA1UECAwQ
UmVwdWJsaWthIFNycHNrYTEhMB8GA1UECgwYRWxla3Ryb3RlaG5pY2tpIGZha3Vs
dGV0MRYwFAYDVQQLDA1LcmlwdG9ncmFmaWphMQ4wDAYDVQQDDAV1c2VyMTEeMBwG
CSqGSIb3DQEJARYPdXNlcjFAZ21haWwuY29tMIIBIjANBgkqhkiG9w0BAQEFAAOC
AQ8AMIIBCgKCAQEAvw9iSyq+nuSx32qXhNYhqX4uMidaWtrzjZt28shNrMz0Scps
FTvo0VjyHAvwrJQwy2/s9xzhZe0ME9cJyIbpOPITxcUNJZ+/PO9ZhxOxf6h+H56q
SsZ61joMUp83X925ZRdiJoLXDMZ/WVaUHeXl7Dv/Q5iPI/W0AweUnlCOA3z8crHy
/oBQzPlPCFeIvaj2CQ9yXDX8e5I1lm4QosDxoc71jt1BbFouB+CRFKA5bdF3uSem
4QQ/P2iz+A029QY/DXvqodKTUdWSI9jqKCcEDxXZwkfoDkFEYYqwtYCg5qM37u61
YZ30KgO9S6WNVLaLftwnyWQ5Wso9rvoKZsOwjQIDAQABo3sweTAJBgNVHRMEAjAA
MCwGCWCGSAGG+EIBDQQfFh1PcGVuU1NMIEdlbmVyYXRlZCBDZXJ0aWZpY2F0ZTAd
BgNVHQ4EFgQUBg+LEbdbsavpYKQd+jhMP8z4j0MwHwYDVR0jBBgwFoAUffGBTgLf
vJtwz2VDZslsfBTfvCcwDQYJKoZIhvcNAQELBQADggEBABGw367yiPEM/fRtFsHP
Iv8ujQpc+DPKNNoyfTuVKEl2/UHXylkv2/X5r6W0jaSs9cUQalDMNeDhnkWG9F0k
kNS7AL3rjJ2klzOXfnR5nKE0FWEMF6KiSdQvNgtjZal8YLMrNGKTX02Nukzf+6xV
RV0wRtY9HONr5olpda6M+RQihkcuQgv1Wc8NDQ083vFA/QgCnT28I275Q7kZak7r
6QWgA8LaApit0u3mqT2V3SYOUgTY2mHTQ5LsFiga85hG3jGxSWF+l+DN5pULLoij
RqXYJhQh+chLhlqZ6GSHJfiQqOY9m1rGA7wQ9z37iyUTBTFx2VGjqot/Hmn9jXmc
Sfk=
-----END CERTIFICATE-----
