Certificate:
    Data:
        Version: 3 (0x2)
        Serial Number: 196 (0xc4)
    Signature Algorithm: sha256WithRSAEncryption
        Issuer: C=BH, ST=Republika Srpska, L=Banja Luka, O=Elektrotehnicki fakultet, OU=Kriptografija, CN=rootCA/emailAddress=djordje.palavestra@student.etf.unibl.org
        Validity
            Not Before: May 31 10:47:59 2019 GMT
            Not After : May 30 10:47:59 2020 GMT
        Subject: C=BH, ST=Republika Srpska, O=Elektrotehnicki fakultet, OU=Kriptografija, CN=user1/emailAddress=user1@gmail.com
        Subject Public Key Info:
            Public Key Algorithm: rsaEncryption
                Public-Key: (2048 bit)
                Modulus:
                    00:bf:0f:62:4b:2a:be:9e:e4:b1:df:6a:97:84:d6:
                    21:a9:7e:2e:32:27:5a:5a:da:f3:8d:9b:76:f2:c8:
                    4d:ac:cc:f4:49:ca:6c:15:3b:e8:d1:58:f2:1c:0b:
                    f0:ac:94:30:cb:6f:ec:f7:1c:e1:65:ed:0c:13:d7:
                    09:c8:86:e9:38:f2:13:c5:c5:0d:25:9f:bf:3c:ef:
                    59:87:13:b1:7f:a8:7e:1f:9e:aa:4a:c6:7a:d6:3a:
                    0c:52:9f:37:5f:dd:b9:65:17:62:26:82:d7:0c:c6:
                    7f:59:56:94:1d:e5:e5:ec:3b:ff:43:98:8f:23:f5:
                    b4:03:07:94:9e:50:8e:03:7c:fc:72:b1:f2:fe:80:
                    50:cc:f9:4f:08:57:88:bd:a8:f6:09:0f:72:5c:35:
                    fc:7b:92:35:96:6e:10:a2:c0:f1:a1:ce:f5:8e:dd:
                    41:6c:5a:2e:07:e0:91:14:a0:39:6d:d1:77:b9:27:
                    a6:e1:04:3f:3f:68:b3:f8:0d:36:f5:06:3f:0d:7b:
                    ea:a1:d2:93:51:d5:92:23:d8:ea:28:27:04:0f:15:
                    d9:c2:47:e8:0e:41:44:61:8a:b0:b5:80:a0:e6:a3:
                    37:ee:ee:b5:61:9d:f4:2a:03:bd:4b:a5:8d:54:b6:
                    8b:7e:dc:27:c9:64:39:5a:ca:3d:ae:fa:0a:66:c3:
                    b0:8d
                Exponent: 65537 (0x10001)
        X509v3 extensions:
            X509v3 Basic Constraints: 
                CA:FALSE
            Netscape Comment: 
                OpenSSL Generated Certificate
            X509v3 Subject Key Identifier: 
                06:0F:8B:11:B7:5B:B1:AB:E9:60:A4:1D:FA:38:4C:3F:CC:F8:8F:43
            X509v3 Authority Key Identifier: 
                keyid:ED:35:49:19:93:EC:60:56:3A:F5:61:52:FA:BF:B0:B1:AD:FA:67:B8

    Signature Algorithm: sha256WithRSAEncryption
         0e:80:20:68:ac:a3:32:90:5e:dc:2a:f8:ba:ca:24:d0:6e:cc:
         b8:d5:7c:c6:cc:5f:59:06:47:02:70:d6:45:9e:6b:72:b2:83:
         5f:1b:aa:3e:ee:ed:a3:c7:60:03:7e:04:37:76:4d:8e:80:60:
         da:87:8d:5f:cf:cb:79:cf:89:95:2f:de:ac:df:01:8d:99:87:
         23:ae:27:99:95:07:2f:43:ab:39:cb:ed:0c:01:15:1a:34:52:
         ca:60:1c:5a:7c:98:3f:f0:6f:83:c6:cf:8e:b0:f3:e1:b2:3f:
         61:ba:5c:2f:f9:c0:b9:a5:a4:44:c1:89:01:37:14:40:42:23:
         64:18:4b:7a:2c:a8:0a:49:cd:a8:c5:3c:fd:44:d5:4a:50:ca:
         2a:d5:c6:af:23:be:4c:4d:06:3b:02:d3:1e:3b:8f:fb:34:48:
         45:c0:b2:97:a3:73:de:b4:bd:60:9b:1c:aa:f0:3d:a0:3d:22:
         34:ed:c6:e0:93:9b:1b:87:9e:10:7d:f9:bf:fe:a7:45:a5:6a:
         4a:11:6b:89:a6:0b:90:e9:07:10:4a:76:2a:18:fa:35:f3:ec:
         a0:41:ca:fe:d8:66:8d:72:80:c6:ad:1f:75:8e:a4:65:1f:1e:
         bb:e3:4f:3e:90:09:11:24:57:f7:5d:19:78:0b:aa:c9:7f:90:
         1b:c8:f8:b5
-----BEGIN CERTIFICATE-----
MIIETjCCAzagAwIBAgICAMQwDQYJKoZIhvcNAQELBQAwgcIxCzAJBgNVBAYTAkJI
MRkwFwYDVQQIDBBSZXB1Ymxpa2EgU3Jwc2thMRMwEQYDVQQHDApCYW5qYSBMdWth
MSEwHwYDVQQKDBhFbGVrdHJvdGVobmlja2kgZmFrdWx0ZXQxFjAUBgNVBAsMDUty
aXB0b2dyYWZpamExDzANBgNVBAMMBnJvb3RDQTE3MDUGCSqGSIb3DQEJARYoZGpv
cmRqZS5wYWxhdmVzdHJhQHN0dWRlbnQuZXRmLnVuaWJsLm9yZzAeFw0xOTA1MzEx
MDQ3NTlaFw0yMDA1MzAxMDQ3NTlaMIGTMQswCQYDVQQGEwJCSDEZMBcGA1UECAwQ
UmVwdWJsaWthIFNycHNrYTEhMB8GA1UECgwYRWxla3Ryb3RlaG5pY2tpIGZha3Vs
dGV0MRYwFAYDVQQLDA1LcmlwdG9ncmFmaWphMQ4wDAYDVQQDDAV1c2VyMTEeMBwG
CSqGSIb3DQEJARYPdXNlcjFAZ21haWwuY29tMIIBIjANBgkqhkiG9w0BAQEFAAOC
AQ8AMIIBCgKCAQEAvw9iSyq+nuSx32qXhNYhqX4uMidaWtrzjZt28shNrMz0Scps
FTvo0VjyHAvwrJQwy2/s9xzhZe0ME9cJyIbpOPITxcUNJZ+/PO9ZhxOxf6h+H56q
SsZ61joMUp83X925ZRdiJoLXDMZ/WVaUHeXl7Dv/Q5iPI/W0AweUnlCOA3z8crHy
/oBQzPlPCFeIvaj2CQ9yXDX8e5I1lm4QosDxoc71jt1BbFouB+CRFKA5bdF3uSem
4QQ/P2iz+A029QY/DXvqodKTUdWSI9jqKCcEDxXZwkfoDkFEYYqwtYCg5qM37u61
YZ30KgO9S6WNVLaLftwnyWQ5Wso9rvoKZsOwjQIDAQABo3sweTAJBgNVHRMEAjAA
MCwGCWCGSAGG+EIBDQQfFh1PcGVuU1NMIEdlbmVyYXRlZCBDZXJ0aWZpY2F0ZTAd
BgNVHQ4EFgQUBg+LEbdbsavpYKQd+jhMP8z4j0MwHwYDVR0jBBgwFoAU7TVJGZPs
YFY69WFS+r+wsa36Z7gwDQYJKoZIhvcNAQELBQADggEBAA6AIGisozKQXtwq+LrK
JNBuzLjVfMbMX1kGRwJw1kWea3Kyg18bqj7u7aPHYAN+BDd2TY6AYNqHjV/Py3nP
iZUv3qzfAY2ZhyOuJ5mVBy9DqznL7QwBFRo0UspgHFp8mD/wb4PGz46w8+GyP2G6
XC/5wLmlpETBiQE3FEBCI2QYS3osqApJzajFPP1E1UpQyirVxq8jvkxNBjsC0x47
j/s0SEXAspejc960vWCbHKrwPaA9IjTtxuCTmxuHnhB9+b/+p0WlakoRa4mmC5Dp
BxBKdioY+jXz7KBByv7YZo1ygMatH3WOpGUfHrvjTz6QCREkV/ddGXgLqsl/kBvI
+LU=
-----END CERTIFICATE-----
