Certificate:
    Data:
        Version: 3 (0x2)
        Serial Number: 198 (0xc6)
    Signature Algorithm: sha256WithRSAEncryption
        Issuer: C=BH, ST=Republika Srpska, L=Banja Luka, O=Elektrotehnicki fakultet, OU=Kriptografija, CN=rootCA/emailAddress=djordje.palavestra@student.etf.unibl.org
        Validity
            Not Before: May 31 11:17:04 2019 GMT
            Not After : May 30 11:17:04 2020 GMT
        Subject: C=BH, ST=Republika Srpska, O=Elektrotehnicki fakultet, OU=Kriptografija, CN=user2/emailAddress=user2@gmail.com
        Subject Public Key Info:
            Public Key Algorithm: rsaEncryption
                Public-Key: (2048 bit)
                Modulus:
                    00:c0:a0:fc:88:75:6d:86:05:69:d0:97:94:df:f8:
                    8d:ef:f2:20:44:d7:71:1c:69:01:d3:3d:48:e0:e2:
                    38:a8:98:68:95:93:35:0b:9a:c9:a9:ca:56:eb:98:
                    36:41:8f:2a:21:57:33:bb:84:f2:9c:82:59:11:be:
                    5e:ff:38:98:c4:47:e2:6c:57:3a:c3:98:c0:3e:7d:
                    aa:26:a8:19:82:eb:19:6c:a1:31:e2:e6:7f:05:9b:
                    bd:0a:86:43:a4:d1:f5:0a:ba:d2:4c:a1:ab:ba:72:
                    58:03:32:9c:d1:5f:36:69:8d:d5:e4:e9:1b:81:ed:
                    0a:36:29:b2:b0:b7:f4:a3:04:87:a9:42:f0:51:ac:
                    c5:bd:ec:b6:95:a5:92:32:30:bc:5b:57:7a:6c:72:
                    2e:71:b9:94:f7:76:75:c0:4d:b9:d9:57:4a:9b:c2:
                    ed:ac:50:35:38:b4:37:16:b9:0f:4c:31:15:73:e3:
                    ec:a8:d0:b3:d4:78:04:e3:8a:19:48:41:1a:89:67:
                    00:a2:56:9c:87:a0:74:61:00:cc:75:88:dd:7a:77:
                    99:4c:c8:92:26:84:c1:44:34:cc:f4:94:1b:53:de:
                    cd:f5:70:10:67:f0:d7:25:dd:bd:f1:b6:62:5a:33:
                    a7:f9:24:0b:3b:59:83:3d:35:f3:b1:52:0b:d3:68:
                    01:a5
                Exponent: 65537 (0x10001)
        X509v3 extensions:
            X509v3 Basic Constraints: 
                CA:FALSE
            X509v3 Key Usage: 
                Digital Signature, Non Repudiation, Key Encipherment
            Netscape Comment: 
                OpenSSL Generated Certificate
            X509v3 Subject Key Identifier: 
                13:C4:84:50:30:74:1F:DE:D9:6A:68:EC:71:D0:D3:5D:03:3C:9D:7B
            X509v3 Authority Key Identifier: 
                keyid:C1:06:EE:2D:63:0A:80:21:A8:83:57:56:85:FF:79:DD:3A:9B:98:8A

    Signature Algorithm: sha256WithRSAEncryption
         4b:d0:f7:26:39:d2:ee:ca:06:c9:97:43:6c:e7:88:47:29:5b:
         6d:5d:35:9e:9b:c3:ed:ce:a7:54:7d:47:4d:c5:33:e0:68:5b:
         26:a7:26:ce:18:67:d6:51:6b:54:59:b0:4b:83:c9:b6:1e:e2:
         02:f8:67:dd:aa:12:71:dd:49:3a:de:82:b4:6e:89:84:9d:54:
         65:21:f5:a5:75:d0:2c:1e:7a:79:b6:58:4d:d3:44:c8:52:6b:
         7a:7f:cf:6a:14:71:e2:51:50:32:10:af:07:64:a3:a5:bb:d2:
         11:46:28:8d:6b:e5:5b:24:0f:3f:d0:7a:1d:f9:13:2a:67:a5:
         60:fc:ee:3d:55:30:5b:16:cb:8a:d0:4f:c5:3d:5d:d7:71:f7:
         3a:b1:89:5d:e1:2c:7e:15:e3:3b:dd:04:5f:9e:e2:31:bf:94:
         34:11:dd:5e:9c:30:2a:ec:16:ee:de:1b:62:a8:f7:34:a7:6e:
         df:ce:b2:fc:5a:90:39:59:f8:63:d8:1a:a0:e2:28:be:38:35:
         fa:e0:24:d6:2c:e1:4f:e0:3f:bb:e2:7d:20:7d:91:ed:5a:01:
         cb:75:29:34:b0:34:e0:f4:44:b8:f1:9f:d0:49:61:05:6f:2c:
         e5:21:00:79:a7:d2:d7:ea:c1:ed:3e:f1:37:b2:06:29:16:55:
         b8:1c:66:df
-----BEGIN CERTIFICATE-----
MIIEXTCCA0WgAwIBAgICAMYwDQYJKoZIhvcNAQELBQAwgcIxCzAJBgNVBAYTAkJI
MRkwFwYDVQQIDBBSZXB1Ymxpa2EgU3Jwc2thMRMwEQYDVQQHDApCYW5qYSBMdWth
MSEwHwYDVQQKDBhFbGVrdHJvdGVobmlja2kgZmFrdWx0ZXQxFjAUBgNVBAsMDUty
aXB0b2dyYWZpamExDzANBgNVBAMMBnJvb3RDQTE3MDUGCSqGSIb3DQEJARYoZGpv
cmRqZS5wYWxhdmVzdHJhQHN0dWRlbnQuZXRmLnVuaWJsLm9yZzAeFw0xOTA1MzEx
MTE3MDRaFw0yMDA1MzAxMTE3MDRaMIGTMQswCQYDVQQGEwJCSDEZMBcGA1UECAwQ
UmVwdWJsaWthIFNycHNrYTEhMB8GA1UECgwYRWxla3Ryb3RlaG5pY2tpIGZha3Vs
dGV0MRYwFAYDVQQLDA1LcmlwdG9ncmFmaWphMQ4wDAYDVQQDDAV1c2VyMjEeMBwG
CSqGSIb3DQEJARYPdXNlcjJAZ21haWwuY29tMIIBIjANBgkqhkiG9w0BAQEFAAOC
AQ8AMIIBCgKCAQEAwKD8iHVthgVp0JeU3/iN7/IgRNdxHGkB0z1I4OI4qJholZM1
C5rJqcpW65g2QY8qIVczu4TynIJZEb5e/ziYxEfibFc6w5jAPn2qJqgZgusZbKEx
4uZ/BZu9CoZDpNH1CrrSTKGrunJYAzKc0V82aY3V5Okbge0KNimysLf0owSHqULw
UazFvey2laWSMjC8W1d6bHIucbmU93Z1wE252VdKm8LtrFA1OLQ3FrkPTDEVc+Ps
qNCz1HgE44oZSEEaiWcAolach6B0YQDMdYjdeneZTMiSJoTBRDTM9JQbU97N9XAQ
Z/DXJd298bZiWjOn+SQLO1mDPTXzsVIL02gBpQIDAQABo4GJMIGGMAkGA1UdEwQC
MAAwCwYDVR0PBAQDAgXgMCwGCWCGSAGG+EIBDQQfFh1PcGVuU1NMIEdlbmVyYXRl
ZCBDZXJ0aWZpY2F0ZTAdBgNVHQ4EFgQUE8SEUDB0H97ZamjscdDTXQM8nXswHwYD
VR0jBBgwFoAUwQbuLWMKgCGog1dWhf953TqbmIowDQYJKoZIhvcNAQELBQADggEB
AEvQ9yY50u7KBsmXQ2zniEcpW21dNZ6bw+3Op1R9R03FM+BoWyanJs4YZ9ZRa1RZ
sEuDybYe4gL4Z92qEnHdSTregrRuiYSdVGUh9aV10Cweenm2WE3TRMhSa3p/z2oU
ceJRUDIQrwdko6W70hFGKI1r5VskDz/Qeh35EypnpWD87j1VMFsWy4rQT8U9Xddx
9zqxiV3hLH4V4zvdBF+e4jG/lDQR3V6cMCrsFu7eG2Ko9zSnbt/OsvxakDlZ+GPY
GqDiKL44NfrgJNYs4U/gP7vifSB9ke1aAct1KTSwNOD0RLjxn9BJYQVvLOUhAHmn
0tfqwe0+8TeyBikWVbgcZt8=
-----END CERTIFICATE-----
