Certificate:
    Data:
        Version: 3 (0x2)
        Serial Number: 199 (0xc7)
    Signature Algorithm: sha256WithRSAEncryption
        Issuer: C=BH, ST=Republika Srpska, L=Banja Luka, O=Elektrotehnicki fakultet, OU=Kriptografija, CN=rootCA/emailAddress=djordje.palavestra@student.etf.unibl.org
        Validity
            Not Before: May 31 11:19:31 2019 GMT
            Not After : May 30 11:19:31 2020 GMT
        Subject: C=BH, ST=Republika Srpska, O=Elektrotehnicki fakultet, OU=Kriptografija, CN=user3/emailAddress=user3@gmail.com
        Subject Public Key Info:
            Public Key Algorithm: rsaEncryption
                Public-Key: (2048 bit)
                Modulus:
                    00:eb:8f:f4:7d:b9:bb:00:d2:04:06:af:9a:ea:ee:
                    ee:36:79:9e:b9:ce:c3:e2:6f:46:7e:c1:55:f6:a7:
                    14:56:ce:b5:df:d8:6d:27:e6:cd:ee:57:4c:b2:a6:
                    0b:de:b3:14:4d:37:4b:cf:68:9c:8f:dc:04:1b:72:
                    5d:8f:11:f4:19:8f:84:b8:b5:23:2b:ec:ca:ee:c2:
                    c0:80:39:5d:0b:59:ad:c3:bb:fe:fe:c8:0c:c0:67:
                    1e:36:19:b2:05:37:f2:0b:e9:b2:ea:f8:b1:d4:50:
                    df:1a:44:f5:8e:91:13:93:22:50:96:60:eb:40:e0:
                    5c:b5:6f:15:26:87:85:8d:09:09:b0:b9:20:27:40:
                    6b:08:45:99:58:38:2a:f2:32:7c:03:d6:51:b7:51:
                    5b:06:30:f3:dd:63:ee:9e:89:62:05:04:30:0d:fa:
                    d3:5e:41:42:39:41:be:94:5c:2e:83:7f:b1:37:1f:
                    57:dc:f7:6e:13:42:ac:7d:59:a0:ae:51:82:67:94:
                    b7:24:6a:48:f2:2f:69:8f:53:8b:b5:0a:9a:06:3a:
                    2b:ac:3f:95:ca:4a:67:cf:ab:84:9a:38:c9:b8:62:
                    21:9c:8d:2b:4b:d3:e0:00:c4:d1:6e:d6:7f:03:94:
                    c1:10:6e:16:b7:c9:02:9e:37:f6:00:c4:36:80:c0:
                    e0:c5
                Exponent: 65537 (0x10001)
        X509v3 extensions:
            X509v3 Basic Constraints: 
                CA:FALSE
            X509v3 Key Usage: 
                Digital Signature, Non Repudiation, Key Encipherment
            Netscape Comment: 
                OpenSSL Generated Certificate
            X509v3 Subject Key Identifier: 
                CA:AF:73:F9:2F:E1:92:FC:36:46:81:9B:61:6F:9D:6B:3D:55:4E:20
            X509v3 Authority Key Identifier: 
                keyid:C1:06:EE:2D:63:0A:80:21:A8:83:57:56:85:FF:79:DD:3A:9B:98:8A

    Signature Algorithm: sha256WithRSAEncryption
         90:09:88:7d:a1:79:57:ee:99:cd:f6:ff:25:fd:a2:58:8f:ba:
         6a:59:7a:9c:a1:a6:e6:63:04:d5:ac:c5:2f:3a:39:d9:f6:c4:
         4a:f4:87:6e:94:dd:89:ab:c0:6f:8d:d6:03:16:26:78:53:63:
         5c:dd:93:e9:d1:c1:08:bb:59:4d:f3:9b:d8:98:7e:58:6d:af:
         f9:de:40:5d:2d:11:c7:36:46:f1:e5:4d:46:2c:5a:c3:57:0c:
         b6:7d:0b:cf:e3:b3:f3:17:18:04:87:c7:61:08:8f:40:fd:70:
         48:60:d1:2d:97:58:0a:7f:97:c0:62:a5:e0:c2:2d:b8:cf:3a:
         eb:f0:59:df:d3:41:15:cb:bd:fe:da:6a:3b:af:57:3b:65:72:
         cc:af:e6:8f:15:2f:ce:6c:77:38:44:13:77:36:63:58:2a:60:
         36:8f:ae:cb:ba:1a:24:22:cd:37:0e:cc:5d:ad:9e:72:31:74:
         88:d5:71:94:1d:41:80:33:64:5c:f1:9d:b3:9b:5b:1b:33:a4:
         47:b6:f2:85:52:05:5b:b2:1a:d6:b8:71:2e:10:d7:71:0f:5d:
         09:8a:98:64:1a:6a:9d:5b:0f:c5:a2:59:a7:bb:23:fb:ce:82:
         f7:d2:3c:1c:51:d9:df:55:e3:d9:1c:20:0d:cb:9b:fe:0e:7a:
         e0:52:ab:87
-----BEGIN CERTIFICATE-----
MIIEXTCCA0WgAwIBAgICAMcwDQYJKoZIhvcNAQELBQAwgcIxCzAJBgNVBAYTAkJI
MRkwFwYDVQQIDBBSZXB1Ymxpa2EgU3Jwc2thMRMwEQYDVQQHDApCYW5qYSBMdWth
MSEwHwYDVQQKDBhFbGVrdHJvdGVobmlja2kgZmFrdWx0ZXQxFjAUBgNVBAsMDUty
aXB0b2dyYWZpamExDzANBgNVBAMMBnJvb3RDQTE3MDUGCSqGSIb3DQEJARYoZGpv
cmRqZS5wYWxhdmVzdHJhQHN0dWRlbnQuZXRmLnVuaWJsLm9yZzAeFw0xOTA1MzEx
MTE5MzFaFw0yMDA1MzAxMTE5MzFaMIGTMQswCQYDVQQGEwJCSDEZMBcGA1UECAwQ
UmVwdWJsaWthIFNycHNrYTEhMB8GA1UECgwYRWxla3Ryb3RlaG5pY2tpIGZha3Vs
dGV0MRYwFAYDVQQLDA1LcmlwdG9ncmFmaWphMQ4wDAYDVQQDDAV1c2VyMzEeMBwG
CSqGSIb3DQEJARYPdXNlcjNAZ21haWwuY29tMIIBIjANBgkqhkiG9w0BAQEFAAOC
AQ8AMIIBCgKCAQEA64/0fbm7ANIEBq+a6u7uNnmeuc7D4m9GfsFV9qcUVs6139ht
J+bN7ldMsqYL3rMUTTdLz2icj9wEG3JdjxH0GY+EuLUjK+zK7sLAgDldC1mtw7v+
/sgMwGceNhmyBTfyC+my6vix1FDfGkT1jpETkyJQlmDrQOBctW8VJoeFjQkJsLkg
J0BrCEWZWDgq8jJ8A9ZRt1FbBjDz3WPunoliBQQwDfrTXkFCOUG+lFwug3+xNx9X
3PduE0KsfVmgrlGCZ5S3JGpI8i9pj1OLtQqaBjorrD+Vykpnz6uEmjjJuGIhnI0r
S9PgAMTRbtZ/A5TBEG4Wt8kCnjf2AMQ2gMDgxQIDAQABo4GJMIGGMAkGA1UdEwQC
MAAwCwYDVR0PBAQDAgXgMCwGCWCGSAGG+EIBDQQfFh1PcGVuU1NMIEdlbmVyYXRl
ZCBDZXJ0aWZpY2F0ZTAdBgNVHQ4EFgQUyq9z+S/hkvw2RoGbYW+daz1VTiAwHwYD
VR0jBBgwFoAUwQbuLWMKgCGog1dWhf953TqbmIowDQYJKoZIhvcNAQELBQADggEB
AJAJiH2heVfumc32/yX9oliPumpZepyhpuZjBNWsxS86Odn2xEr0h26U3YmrwG+N
1gMWJnhTY1zdk+nRwQi7WU3zm9iYflhtr/neQF0tEcc2RvHlTUYsWsNXDLZ9C8/j
s/MXGASHx2EIj0D9cEhg0S2XWAp/l8BipeDCLbjPOuvwWd/TQRXLvf7aajuvVztl
csyv5o8VL85sdzhEE3c2Y1gqYDaPrsu6GiQizTcOzF2tnnIxdIjVcZQdQYAzZFzx
nbObWxszpEe28oVSBVuyGta4cS4Q13EPXQmKmGQaap1bD8WiWae7I/vOgvfSPBxR
2d9V49kcIA3Lm/4OeuBSq4c=
-----END CERTIFICATE-----
